   1               		.file	"EndpointStream_AVR8.c"
   2               	__SP_H__ = 0x3e
   3               	__SP_L__ = 0x3d
   4               	__SREG__ = 0x3f
   5               	__RAMPZ__ = 0x3b
   6               	__tmp_reg__ = 0
   7               	__zero_reg__ = 1
   8               		.text
   9               	.Ltext0:
  10               		.cfi_sections	.debug_frame
  11               		.section	.text.Endpoint_Discard_Stream,"ax",@progbits
  12               	.global	Endpoint_Discard_Stream
  14               	Endpoint_Discard_Stream:
  15               	.LFB85:
  16               		.file 1 "../tmk_core/protocol/lufa/LUFA-git/LUFA/Drivers/USB/Core/AVR8/EndpointStream_AVR8.c"
   1:../tmk_core/protocol/lufa/LUFA-git/LUFA/Drivers/USB/Core/AVR8/EndpointStream_AVR8.c **** /*
   2:../tmk_core/protocol/lufa/LUFA-git/LUFA/Drivers/USB/Core/AVR8/EndpointStream_AVR8.c ****              LUFA Library
   3:../tmk_core/protocol/lufa/LUFA-git/LUFA/Drivers/USB/Core/AVR8/EndpointStream_AVR8.c ****      Copyright (C) Dean Camera, 2014.
   4:../tmk_core/protocol/lufa/LUFA-git/LUFA/Drivers/USB/Core/AVR8/EndpointStream_AVR8.c **** 
   5:../tmk_core/protocol/lufa/LUFA-git/LUFA/Drivers/USB/Core/AVR8/EndpointStream_AVR8.c ****   dean [at] fourwalledcubicle [dot] com
   6:../tmk_core/protocol/lufa/LUFA-git/LUFA/Drivers/USB/Core/AVR8/EndpointStream_AVR8.c ****            www.lufa-lib.org
   7:../tmk_core/protocol/lufa/LUFA-git/LUFA/Drivers/USB/Core/AVR8/EndpointStream_AVR8.c **** */
   8:../tmk_core/protocol/lufa/LUFA-git/LUFA/Drivers/USB/Core/AVR8/EndpointStream_AVR8.c **** 
   9:../tmk_core/protocol/lufa/LUFA-git/LUFA/Drivers/USB/Core/AVR8/EndpointStream_AVR8.c **** /*
  10:../tmk_core/protocol/lufa/LUFA-git/LUFA/Drivers/USB/Core/AVR8/EndpointStream_AVR8.c ****   Copyright 2014  Dean Camera (dean [at] fourwalledcubicle [dot] com)
  11:../tmk_core/protocol/lufa/LUFA-git/LUFA/Drivers/USB/Core/AVR8/EndpointStream_AVR8.c **** 
  12:../tmk_core/protocol/lufa/LUFA-git/LUFA/Drivers/USB/Core/AVR8/EndpointStream_AVR8.c ****   Permission to use, copy, modify, distribute, and sell this
  13:../tmk_core/protocol/lufa/LUFA-git/LUFA/Drivers/USB/Core/AVR8/EndpointStream_AVR8.c ****   software and its documentation for any purpose is hereby granted
  14:../tmk_core/protocol/lufa/LUFA-git/LUFA/Drivers/USB/Core/AVR8/EndpointStream_AVR8.c ****   without fee, provided that the above copyright notice appear in
  15:../tmk_core/protocol/lufa/LUFA-git/LUFA/Drivers/USB/Core/AVR8/EndpointStream_AVR8.c ****   all copies and that both that the copyright notice and this
  16:../tmk_core/protocol/lufa/LUFA-git/LUFA/Drivers/USB/Core/AVR8/EndpointStream_AVR8.c ****   permission notice and warranty disclaimer appear in supporting
  17:../tmk_core/protocol/lufa/LUFA-git/LUFA/Drivers/USB/Core/AVR8/EndpointStream_AVR8.c ****   documentation, and that the name of the author not be used in
  18:../tmk_core/protocol/lufa/LUFA-git/LUFA/Drivers/USB/Core/AVR8/EndpointStream_AVR8.c ****   advertising or publicity pertaining to distribution of the
  19:../tmk_core/protocol/lufa/LUFA-git/LUFA/Drivers/USB/Core/AVR8/EndpointStream_AVR8.c ****   software without specific, written prior permission.
  20:../tmk_core/protocol/lufa/LUFA-git/LUFA/Drivers/USB/Core/AVR8/EndpointStream_AVR8.c **** 
  21:../tmk_core/protocol/lufa/LUFA-git/LUFA/Drivers/USB/Core/AVR8/EndpointStream_AVR8.c ****   The author disclaims all warranties with regard to this
  22:../tmk_core/protocol/lufa/LUFA-git/LUFA/Drivers/USB/Core/AVR8/EndpointStream_AVR8.c ****   software, including all implied warranties of merchantability
  23:../tmk_core/protocol/lufa/LUFA-git/LUFA/Drivers/USB/Core/AVR8/EndpointStream_AVR8.c ****   and fitness.  In no event shall the author be liable for any
  24:../tmk_core/protocol/lufa/LUFA-git/LUFA/Drivers/USB/Core/AVR8/EndpointStream_AVR8.c ****   special, indirect or consequential damages or any damages
  25:../tmk_core/protocol/lufa/LUFA-git/LUFA/Drivers/USB/Core/AVR8/EndpointStream_AVR8.c ****   whatsoever resulting from loss of use, data or profits, whether
  26:../tmk_core/protocol/lufa/LUFA-git/LUFA/Drivers/USB/Core/AVR8/EndpointStream_AVR8.c ****   in an action of contract, negligence or other tortious action,
  27:../tmk_core/protocol/lufa/LUFA-git/LUFA/Drivers/USB/Core/AVR8/EndpointStream_AVR8.c ****   arising out of or in connection with the use or performance of
  28:../tmk_core/protocol/lufa/LUFA-git/LUFA/Drivers/USB/Core/AVR8/EndpointStream_AVR8.c ****   this software.
  29:../tmk_core/protocol/lufa/LUFA-git/LUFA/Drivers/USB/Core/AVR8/EndpointStream_AVR8.c **** */
  30:../tmk_core/protocol/lufa/LUFA-git/LUFA/Drivers/USB/Core/AVR8/EndpointStream_AVR8.c **** 
  31:../tmk_core/protocol/lufa/LUFA-git/LUFA/Drivers/USB/Core/AVR8/EndpointStream_AVR8.c **** #include "../../../../Common/Common.h"
  32:../tmk_core/protocol/lufa/LUFA-git/LUFA/Drivers/USB/Core/AVR8/EndpointStream_AVR8.c **** #if (ARCH == ARCH_AVR8)
  33:../tmk_core/protocol/lufa/LUFA-git/LUFA/Drivers/USB/Core/AVR8/EndpointStream_AVR8.c **** 
  34:../tmk_core/protocol/lufa/LUFA-git/LUFA/Drivers/USB/Core/AVR8/EndpointStream_AVR8.c **** #define  __INCLUDE_FROM_USB_DRIVER
  35:../tmk_core/protocol/lufa/LUFA-git/LUFA/Drivers/USB/Core/AVR8/EndpointStream_AVR8.c **** #include "../USBMode.h"
  36:../tmk_core/protocol/lufa/LUFA-git/LUFA/Drivers/USB/Core/AVR8/EndpointStream_AVR8.c **** 
  37:../tmk_core/protocol/lufa/LUFA-git/LUFA/Drivers/USB/Core/AVR8/EndpointStream_AVR8.c **** #if defined(USB_CAN_BE_DEVICE)
  38:../tmk_core/protocol/lufa/LUFA-git/LUFA/Drivers/USB/Core/AVR8/EndpointStream_AVR8.c **** 
  39:../tmk_core/protocol/lufa/LUFA-git/LUFA/Drivers/USB/Core/AVR8/EndpointStream_AVR8.c **** #include "EndpointStream_AVR8.h"
  40:../tmk_core/protocol/lufa/LUFA-git/LUFA/Drivers/USB/Core/AVR8/EndpointStream_AVR8.c **** 
  41:../tmk_core/protocol/lufa/LUFA-git/LUFA/Drivers/USB/Core/AVR8/EndpointStream_AVR8.c **** #if !defined(CONTROL_ONLY_DEVICE)
  42:../tmk_core/protocol/lufa/LUFA-git/LUFA/Drivers/USB/Core/AVR8/EndpointStream_AVR8.c **** uint8_t Endpoint_Discard_Stream(uint16_t Length,
  43:../tmk_core/protocol/lufa/LUFA-git/LUFA/Drivers/USB/Core/AVR8/EndpointStream_AVR8.c ****                                 uint16_t* const BytesProcessed)
  44:../tmk_core/protocol/lufa/LUFA-git/LUFA/Drivers/USB/Core/AVR8/EndpointStream_AVR8.c **** {
  17               		.loc 1 44 0
  18               		.cfi_startproc
  19               	.LVL0:
  20 0000 EF92      		push r14
  21               	.LCFI0:
  22               		.cfi_def_cfa_offset 3
  23               		.cfi_offset 14, -2
  24 0002 FF92      		push r15
  25               	.LCFI1:
  26               		.cfi_def_cfa_offset 4
  27               		.cfi_offset 15, -3
  28 0004 0F93      		push r16
  29               	.LCFI2:
  30               		.cfi_def_cfa_offset 5
  31               		.cfi_offset 16, -4
  32 0006 1F93      		push r17
  33               	.LCFI3:
  34               		.cfi_def_cfa_offset 6
  35               		.cfi_offset 17, -5
  36 0008 CF93      		push r28
  37               	.LCFI4:
  38               		.cfi_def_cfa_offset 7
  39               		.cfi_offset 28, -6
  40 000a DF93      		push r29
  41               	.LCFI5:
  42               		.cfi_def_cfa_offset 8
  43               		.cfi_offset 29, -7
  44               	/* prologue: function */
  45               	/* frame size = 0 */
  46               	/* stack size = 6 */
  47               	.L__stack_usage = 6
  48 000c EC01      		movw r28,r24
  49 000e 7B01      		movw r14,r22
  50               	.LVL1:
  45:../tmk_core/protocol/lufa/LUFA-git/LUFA/Drivers/USB/Core/AVR8/EndpointStream_AVR8.c **** 	uint8_t  ErrorCode;
  46:../tmk_core/protocol/lufa/LUFA-git/LUFA/Drivers/USB/Core/AVR8/EndpointStream_AVR8.c **** 	uint16_t BytesInTransfer = 0;
  47:../tmk_core/protocol/lufa/LUFA-git/LUFA/Drivers/USB/Core/AVR8/EndpointStream_AVR8.c **** 
  48:../tmk_core/protocol/lufa/LUFA-git/LUFA/Drivers/USB/Core/AVR8/EndpointStream_AVR8.c **** 	if ((ErrorCode = Endpoint_WaitUntilReady()))
  51               		.loc 1 48 0
  52 0010 0E94 0000 		call Endpoint_WaitUntilReady
  53               	.LVL2:
  54 0014 8111      		cpse r24,__zero_reg__
  55 0016 00C0      		rjmp .L2
  49:../tmk_core/protocol/lufa/LUFA-git/LUFA/Drivers/USB/Core/AVR8/EndpointStream_AVR8.c **** 	  return ErrorCode;
  50:../tmk_core/protocol/lufa/LUFA-git/LUFA/Drivers/USB/Core/AVR8/EndpointStream_AVR8.c **** 
  51:../tmk_core/protocol/lufa/LUFA-git/LUFA/Drivers/USB/Core/AVR8/EndpointStream_AVR8.c **** 	if (BytesProcessed != NULL)
  56               		.loc 1 51 0
  57 0018 E114      		cp r14,__zero_reg__
  58 001a F104      		cpc r15,__zero_reg__
  59 001c 01F0      		breq .L3
  52:../tmk_core/protocol/lufa/LUFA-git/LUFA/Drivers/USB/Core/AVR8/EndpointStream_AVR8.c **** 	  Length -= *BytesProcessed;
  60               		.loc 1 52 0
  61 001e F701      		movw r30,r14
  62 0020 8081      		ld r24,Z
  63 0022 9181      		ldd r25,Z+1
  64               	.LVL3:
  65 0024 C81B      		sub r28,r24
  66 0026 D90B      		sbc r29,r25
  67               	.LVL4:
  68               	.L3:
  44:../tmk_core/protocol/lufa/LUFA-git/LUFA/Drivers/USB/Core/AVR8/EndpointStream_AVR8.c **** 	uint8_t  ErrorCode;
  69               		.loc 1 44 0
  70 0028 00E0      		ldi r16,0
  71 002a 10E0      		ldi r17,0
  72               	.LVL5:
  73               	.L4:
  53:../tmk_core/protocol/lufa/LUFA-git/LUFA/Drivers/USB/Core/AVR8/EndpointStream_AVR8.c **** 
  54:../tmk_core/protocol/lufa/LUFA-git/LUFA/Drivers/USB/Core/AVR8/EndpointStream_AVR8.c **** 	while (Length)
  74               		.loc 1 54 0
  75 002c 2097      		sbiw r28,0
  76 002e 01F0      		breq .L15
  77               	.LBB268:
  78               	.LBB269:
  79               		.file 2 "../tmk_core/protocol/lufa/LUFA-git/LUFA/Drivers/USB/Core/AVR8/../AVR8/../AVR8/Endpoint_AV
   1:../tmk_core/protocol/lufa/LUFA-git/LUFA/Drivers/USB/Core/AVR8/../AVR8/../AVR8/Endpoint_AVR8.h **** /*
   2:../tmk_core/protocol/lufa/LUFA-git/LUFA/Drivers/USB/Core/AVR8/../AVR8/../AVR8/Endpoint_AVR8.h ****              LUFA Library
   3:../tmk_core/protocol/lufa/LUFA-git/LUFA/Drivers/USB/Core/AVR8/../AVR8/../AVR8/Endpoint_AVR8.h ****      Copyright (C) Dean Camera, 2014.
   4:../tmk_core/protocol/lufa/LUFA-git/LUFA/Drivers/USB/Core/AVR8/../AVR8/../AVR8/Endpoint_AVR8.h **** 
   5:../tmk_core/protocol/lufa/LUFA-git/LUFA/Drivers/USB/Core/AVR8/../AVR8/../AVR8/Endpoint_AVR8.h ****   dean [at] fourwalledcubicle [dot] com
   6:../tmk_core/protocol/lufa/LUFA-git/LUFA/Drivers/USB/Core/AVR8/../AVR8/../AVR8/Endpoint_AVR8.h ****            www.lufa-lib.org
   7:../tmk_core/protocol/lufa/LUFA-git/LUFA/Drivers/USB/Core/AVR8/../AVR8/../AVR8/Endpoint_AVR8.h **** */
   8:../tmk_core/protocol/lufa/LUFA-git/LUFA/Drivers/USB/Core/AVR8/../AVR8/../AVR8/Endpoint_AVR8.h **** 
   9:../tmk_core/protocol/lufa/LUFA-git/LUFA/Drivers/USB/Core/AVR8/../AVR8/../AVR8/Endpoint_AVR8.h **** /*
  10:../tmk_core/protocol/lufa/LUFA-git/LUFA/Drivers/USB/Core/AVR8/../AVR8/../AVR8/Endpoint_AVR8.h ****   Copyright 2014  Dean Camera (dean [at] fourwalledcubicle [dot] com)
  11:../tmk_core/protocol/lufa/LUFA-git/LUFA/Drivers/USB/Core/AVR8/../AVR8/../AVR8/Endpoint_AVR8.h **** 
  12:../tmk_core/protocol/lufa/LUFA-git/LUFA/Drivers/USB/Core/AVR8/../AVR8/../AVR8/Endpoint_AVR8.h ****   Permission to use, copy, modify, distribute, and sell this
  13:../tmk_core/protocol/lufa/LUFA-git/LUFA/Drivers/USB/Core/AVR8/../AVR8/../AVR8/Endpoint_AVR8.h ****   software and its documentation for any purpose is hereby granted
  14:../tmk_core/protocol/lufa/LUFA-git/LUFA/Drivers/USB/Core/AVR8/../AVR8/../AVR8/Endpoint_AVR8.h ****   without fee, provided that the above copyright notice appear in
  15:../tmk_core/protocol/lufa/LUFA-git/LUFA/Drivers/USB/Core/AVR8/../AVR8/../AVR8/Endpoint_AVR8.h ****   all copies and that both that the copyright notice and this
  16:../tmk_core/protocol/lufa/LUFA-git/LUFA/Drivers/USB/Core/AVR8/../AVR8/../AVR8/Endpoint_AVR8.h ****   permission notice and warranty disclaimer appear in supporting
  17:../tmk_core/protocol/lufa/LUFA-git/LUFA/Drivers/USB/Core/AVR8/../AVR8/../AVR8/Endpoint_AVR8.h ****   documentation, and that the name of the author not be used in
  18:../tmk_core/protocol/lufa/LUFA-git/LUFA/Drivers/USB/Core/AVR8/../AVR8/../AVR8/Endpoint_AVR8.h ****   advertising or publicity pertaining to distribution of the
  19:../tmk_core/protocol/lufa/LUFA-git/LUFA/Drivers/USB/Core/AVR8/../AVR8/../AVR8/Endpoint_AVR8.h ****   software without specific, written prior permission.
  20:../tmk_core/protocol/lufa/LUFA-git/LUFA/Drivers/USB/Core/AVR8/../AVR8/../AVR8/Endpoint_AVR8.h **** 
  21:../tmk_core/protocol/lufa/LUFA-git/LUFA/Drivers/USB/Core/AVR8/../AVR8/../AVR8/Endpoint_AVR8.h ****   The author disclaims all warranties with regard to this
  22:../tmk_core/protocol/lufa/LUFA-git/LUFA/Drivers/USB/Core/AVR8/../AVR8/../AVR8/Endpoint_AVR8.h ****   software, including all implied warranties of merchantability
  23:../tmk_core/protocol/lufa/LUFA-git/LUFA/Drivers/USB/Core/AVR8/../AVR8/../AVR8/Endpoint_AVR8.h ****   and fitness.  In no event shall the author be liable for any
  24:../tmk_core/protocol/lufa/LUFA-git/LUFA/Drivers/USB/Core/AVR8/../AVR8/../AVR8/Endpoint_AVR8.h ****   special, indirect or consequential damages or any damages
  25:../tmk_core/protocol/lufa/LUFA-git/LUFA/Drivers/USB/Core/AVR8/../AVR8/../AVR8/Endpoint_AVR8.h ****   whatsoever resulting from loss of use, data or profits, whether
  26:../tmk_core/protocol/lufa/LUFA-git/LUFA/Drivers/USB/Core/AVR8/../AVR8/../AVR8/Endpoint_AVR8.h ****   in an action of contract, negligence or other tortious action,
  27:../tmk_core/protocol/lufa/LUFA-git/LUFA/Drivers/USB/Core/AVR8/../AVR8/../AVR8/Endpoint_AVR8.h ****   arising out of or in connection with the use or performance of
  28:../tmk_core/protocol/lufa/LUFA-git/LUFA/Drivers/USB/Core/AVR8/../AVR8/../AVR8/Endpoint_AVR8.h ****   this software.
  29:../tmk_core/protocol/lufa/LUFA-git/LUFA/Drivers/USB/Core/AVR8/../AVR8/../AVR8/Endpoint_AVR8.h **** */
  30:../tmk_core/protocol/lufa/LUFA-git/LUFA/Drivers/USB/Core/AVR8/../AVR8/../AVR8/Endpoint_AVR8.h **** 
  31:../tmk_core/protocol/lufa/LUFA-git/LUFA/Drivers/USB/Core/AVR8/../AVR8/../AVR8/Endpoint_AVR8.h **** /** \file
  32:../tmk_core/protocol/lufa/LUFA-git/LUFA/Drivers/USB/Core/AVR8/../AVR8/../AVR8/Endpoint_AVR8.h ****  *  \brief USB Endpoint definitions for the AVR8 microcontrollers.
  33:../tmk_core/protocol/lufa/LUFA-git/LUFA/Drivers/USB/Core/AVR8/../AVR8/../AVR8/Endpoint_AVR8.h ****  *  \copydetails Group_EndpointManagement_AVR8
  34:../tmk_core/protocol/lufa/LUFA-git/LUFA/Drivers/USB/Core/AVR8/../AVR8/../AVR8/Endpoint_AVR8.h ****  *
  35:../tmk_core/protocol/lufa/LUFA-git/LUFA/Drivers/USB/Core/AVR8/../AVR8/../AVR8/Endpoint_AVR8.h ****  *  \note This file should not be included directly. It is automatically included as needed by the 
  36:../tmk_core/protocol/lufa/LUFA-git/LUFA/Drivers/USB/Core/AVR8/../AVR8/../AVR8/Endpoint_AVR8.h ****  *        dispatch header located in LUFA/Drivers/USB/USB.h.
  37:../tmk_core/protocol/lufa/LUFA-git/LUFA/Drivers/USB/Core/AVR8/../AVR8/../AVR8/Endpoint_AVR8.h ****  */
  38:../tmk_core/protocol/lufa/LUFA-git/LUFA/Drivers/USB/Core/AVR8/../AVR8/../AVR8/Endpoint_AVR8.h **** 
  39:../tmk_core/protocol/lufa/LUFA-git/LUFA/Drivers/USB/Core/AVR8/../AVR8/../AVR8/Endpoint_AVR8.h **** /** \ingroup Group_EndpointRW
  40:../tmk_core/protocol/lufa/LUFA-git/LUFA/Drivers/USB/Core/AVR8/../AVR8/../AVR8/Endpoint_AVR8.h ****  *  \defgroup Group_EndpointRW_AVR8 Endpoint Data Reading and Writing (AVR8)
  41:../tmk_core/protocol/lufa/LUFA-git/LUFA/Drivers/USB/Core/AVR8/../AVR8/../AVR8/Endpoint_AVR8.h ****  *  \brief Endpoint data read/write definitions for the Atmel AVR8 architecture.
  42:../tmk_core/protocol/lufa/LUFA-git/LUFA/Drivers/USB/Core/AVR8/../AVR8/../AVR8/Endpoint_AVR8.h ****  *
  43:../tmk_core/protocol/lufa/LUFA-git/LUFA/Drivers/USB/Core/AVR8/../AVR8/../AVR8/Endpoint_AVR8.h ****  *  Functions, macros, variables, enums and types related to data reading and writing from and to e
  44:../tmk_core/protocol/lufa/LUFA-git/LUFA/Drivers/USB/Core/AVR8/../AVR8/../AVR8/Endpoint_AVR8.h ****  */
  45:../tmk_core/protocol/lufa/LUFA-git/LUFA/Drivers/USB/Core/AVR8/../AVR8/../AVR8/Endpoint_AVR8.h **** 
  46:../tmk_core/protocol/lufa/LUFA-git/LUFA/Drivers/USB/Core/AVR8/../AVR8/../AVR8/Endpoint_AVR8.h **** /** \ingroup Group_EndpointPrimitiveRW
  47:../tmk_core/protocol/lufa/LUFA-git/LUFA/Drivers/USB/Core/AVR8/../AVR8/../AVR8/Endpoint_AVR8.h ****  *  \defgroup Group_EndpointPrimitiveRW_AVR8 Read/Write of Primitive Data Types (AVR8)
  48:../tmk_core/protocol/lufa/LUFA-git/LUFA/Drivers/USB/Core/AVR8/../AVR8/../AVR8/Endpoint_AVR8.h ****  *  \brief Endpoint primitive read/write definitions for the Atmel AVR8 architecture.
  49:../tmk_core/protocol/lufa/LUFA-git/LUFA/Drivers/USB/Core/AVR8/../AVR8/../AVR8/Endpoint_AVR8.h ****  *
  50:../tmk_core/protocol/lufa/LUFA-git/LUFA/Drivers/USB/Core/AVR8/../AVR8/../AVR8/Endpoint_AVR8.h ****  *  Functions, macros, variables, enums and types related to data reading and writing of primitive 
  51:../tmk_core/protocol/lufa/LUFA-git/LUFA/Drivers/USB/Core/AVR8/../AVR8/../AVR8/Endpoint_AVR8.h ****  *  from and to endpoints.
  52:../tmk_core/protocol/lufa/LUFA-git/LUFA/Drivers/USB/Core/AVR8/../AVR8/../AVR8/Endpoint_AVR8.h ****  */
  53:../tmk_core/protocol/lufa/LUFA-git/LUFA/Drivers/USB/Core/AVR8/../AVR8/../AVR8/Endpoint_AVR8.h **** 
  54:../tmk_core/protocol/lufa/LUFA-git/LUFA/Drivers/USB/Core/AVR8/../AVR8/../AVR8/Endpoint_AVR8.h **** /** \ingroup Group_EndpointPacketManagement
  55:../tmk_core/protocol/lufa/LUFA-git/LUFA/Drivers/USB/Core/AVR8/../AVR8/../AVR8/Endpoint_AVR8.h ****  *  \defgroup Group_EndpointPacketManagement_AVR8 Endpoint Packet Management (AVR8)
  56:../tmk_core/protocol/lufa/LUFA-git/LUFA/Drivers/USB/Core/AVR8/../AVR8/../AVR8/Endpoint_AVR8.h ****  *  \brief Endpoint packet management definitions for the Atmel AVR8 architecture.
  57:../tmk_core/protocol/lufa/LUFA-git/LUFA/Drivers/USB/Core/AVR8/../AVR8/../AVR8/Endpoint_AVR8.h ****  *
  58:../tmk_core/protocol/lufa/LUFA-git/LUFA/Drivers/USB/Core/AVR8/../AVR8/../AVR8/Endpoint_AVR8.h ****  *  Functions, macros, variables, enums and types related to packet management of endpoints.
  59:../tmk_core/protocol/lufa/LUFA-git/LUFA/Drivers/USB/Core/AVR8/../AVR8/../AVR8/Endpoint_AVR8.h ****  */
  60:../tmk_core/protocol/lufa/LUFA-git/LUFA/Drivers/USB/Core/AVR8/../AVR8/../AVR8/Endpoint_AVR8.h **** 
  61:../tmk_core/protocol/lufa/LUFA-git/LUFA/Drivers/USB/Core/AVR8/../AVR8/../AVR8/Endpoint_AVR8.h **** /** \ingroup Group_EndpointManagement
  62:../tmk_core/protocol/lufa/LUFA-git/LUFA/Drivers/USB/Core/AVR8/../AVR8/../AVR8/Endpoint_AVR8.h ****  *  \defgroup Group_EndpointManagement_AVR8 Endpoint Management (AVR8)
  63:../tmk_core/protocol/lufa/LUFA-git/LUFA/Drivers/USB/Core/AVR8/../AVR8/../AVR8/Endpoint_AVR8.h ****  *  \brief Endpoint management definitions for the Atmel AVR8 architecture.
  64:../tmk_core/protocol/lufa/LUFA-git/LUFA/Drivers/USB/Core/AVR8/../AVR8/../AVR8/Endpoint_AVR8.h ****  *
  65:../tmk_core/protocol/lufa/LUFA-git/LUFA/Drivers/USB/Core/AVR8/../AVR8/../AVR8/Endpoint_AVR8.h ****  *  Functions, macros and enums related to endpoint management when in USB Device mode. This
  66:../tmk_core/protocol/lufa/LUFA-git/LUFA/Drivers/USB/Core/AVR8/../AVR8/../AVR8/Endpoint_AVR8.h ****  *  module contains the endpoint management macros, as well as endpoint interrupt and data
  67:../tmk_core/protocol/lufa/LUFA-git/LUFA/Drivers/USB/Core/AVR8/../AVR8/../AVR8/Endpoint_AVR8.h ****  *  send/receive functions for various data types.
  68:../tmk_core/protocol/lufa/LUFA-git/LUFA/Drivers/USB/Core/AVR8/../AVR8/../AVR8/Endpoint_AVR8.h ****  *
  69:../tmk_core/protocol/lufa/LUFA-git/LUFA/Drivers/USB/Core/AVR8/../AVR8/../AVR8/Endpoint_AVR8.h ****  *  @{
  70:../tmk_core/protocol/lufa/LUFA-git/LUFA/Drivers/USB/Core/AVR8/../AVR8/../AVR8/Endpoint_AVR8.h ****  */
  71:../tmk_core/protocol/lufa/LUFA-git/LUFA/Drivers/USB/Core/AVR8/../AVR8/../AVR8/Endpoint_AVR8.h **** 
  72:../tmk_core/protocol/lufa/LUFA-git/LUFA/Drivers/USB/Core/AVR8/../AVR8/../AVR8/Endpoint_AVR8.h **** #ifndef __ENDPOINT_AVR8_H__
  73:../tmk_core/protocol/lufa/LUFA-git/LUFA/Drivers/USB/Core/AVR8/../AVR8/../AVR8/Endpoint_AVR8.h **** #define __ENDPOINT_AVR8_H__
  74:../tmk_core/protocol/lufa/LUFA-git/LUFA/Drivers/USB/Core/AVR8/../AVR8/../AVR8/Endpoint_AVR8.h **** 
  75:../tmk_core/protocol/lufa/LUFA-git/LUFA/Drivers/USB/Core/AVR8/../AVR8/../AVR8/Endpoint_AVR8.h **** 	/* Includes: */
  76:../tmk_core/protocol/lufa/LUFA-git/LUFA/Drivers/USB/Core/AVR8/../AVR8/../AVR8/Endpoint_AVR8.h **** 		#include "../../../../Common/Common.h"
  77:../tmk_core/protocol/lufa/LUFA-git/LUFA/Drivers/USB/Core/AVR8/../AVR8/../AVR8/Endpoint_AVR8.h **** 		#include "../USBTask.h"
  78:../tmk_core/protocol/lufa/LUFA-git/LUFA/Drivers/USB/Core/AVR8/../AVR8/../AVR8/Endpoint_AVR8.h **** 		#include "../USBInterrupt.h"
  79:../tmk_core/protocol/lufa/LUFA-git/LUFA/Drivers/USB/Core/AVR8/../AVR8/../AVR8/Endpoint_AVR8.h **** 
  80:../tmk_core/protocol/lufa/LUFA-git/LUFA/Drivers/USB/Core/AVR8/../AVR8/../AVR8/Endpoint_AVR8.h **** 	/* Enable C linkage for C++ Compilers: */
  81:../tmk_core/protocol/lufa/LUFA-git/LUFA/Drivers/USB/Core/AVR8/../AVR8/../AVR8/Endpoint_AVR8.h **** 		#if defined(__cplusplus)
  82:../tmk_core/protocol/lufa/LUFA-git/LUFA/Drivers/USB/Core/AVR8/../AVR8/../AVR8/Endpoint_AVR8.h **** 			extern "C" {
  83:../tmk_core/protocol/lufa/LUFA-git/LUFA/Drivers/USB/Core/AVR8/../AVR8/../AVR8/Endpoint_AVR8.h **** 		#endif
  84:../tmk_core/protocol/lufa/LUFA-git/LUFA/Drivers/USB/Core/AVR8/../AVR8/../AVR8/Endpoint_AVR8.h **** 
  85:../tmk_core/protocol/lufa/LUFA-git/LUFA/Drivers/USB/Core/AVR8/../AVR8/../AVR8/Endpoint_AVR8.h **** 	/* Preprocessor Checks: */
  86:../tmk_core/protocol/lufa/LUFA-git/LUFA/Drivers/USB/Core/AVR8/../AVR8/../AVR8/Endpoint_AVR8.h **** 		#if !defined(__INCLUDE_FROM_USB_DRIVER)
  87:../tmk_core/protocol/lufa/LUFA-git/LUFA/Drivers/USB/Core/AVR8/../AVR8/../AVR8/Endpoint_AVR8.h **** 			#error Do not include this file directly. Include LUFA/Drivers/USB/USB.h instead.
  88:../tmk_core/protocol/lufa/LUFA-git/LUFA/Drivers/USB/Core/AVR8/../AVR8/../AVR8/Endpoint_AVR8.h **** 		#endif
  89:../tmk_core/protocol/lufa/LUFA-git/LUFA/Drivers/USB/Core/AVR8/../AVR8/../AVR8/Endpoint_AVR8.h **** 
  90:../tmk_core/protocol/lufa/LUFA-git/LUFA/Drivers/USB/Core/AVR8/../AVR8/../AVR8/Endpoint_AVR8.h **** 	/* Private Interface - For use in library only: */
  91:../tmk_core/protocol/lufa/LUFA-git/LUFA/Drivers/USB/Core/AVR8/../AVR8/../AVR8/Endpoint_AVR8.h **** 	#if !defined(__DOXYGEN__)
  92:../tmk_core/protocol/lufa/LUFA-git/LUFA/Drivers/USB/Core/AVR8/../AVR8/../AVR8/Endpoint_AVR8.h **** 		/* Inline Functions: */
  93:../tmk_core/protocol/lufa/LUFA-git/LUFA/Drivers/USB/Core/AVR8/../AVR8/../AVR8/Endpoint_AVR8.h **** 			static inline uint8_t Endpoint_BytesToEPSizeMask(const uint16_t Bytes) ATTR_WARN_UNUSED_RESULT A
  94:../tmk_core/protocol/lufa/LUFA-git/LUFA/Drivers/USB/Core/AVR8/../AVR8/../AVR8/Endpoint_AVR8.h **** 			                                                                       ATTR_ALWAYS_INLINE;
  95:../tmk_core/protocol/lufa/LUFA-git/LUFA/Drivers/USB/Core/AVR8/../AVR8/../AVR8/Endpoint_AVR8.h **** 			static inline uint8_t Endpoint_BytesToEPSizeMask(const uint16_t Bytes)
  96:../tmk_core/protocol/lufa/LUFA-git/LUFA/Drivers/USB/Core/AVR8/../AVR8/../AVR8/Endpoint_AVR8.h **** 			{
  97:../tmk_core/protocol/lufa/LUFA-git/LUFA/Drivers/USB/Core/AVR8/../AVR8/../AVR8/Endpoint_AVR8.h **** 				uint8_t  MaskVal    = 0;
  98:../tmk_core/protocol/lufa/LUFA-git/LUFA/Drivers/USB/Core/AVR8/../AVR8/../AVR8/Endpoint_AVR8.h **** 				uint16_t CheckBytes = 8;
  99:../tmk_core/protocol/lufa/LUFA-git/LUFA/Drivers/USB/Core/AVR8/../AVR8/../AVR8/Endpoint_AVR8.h **** 
 100:../tmk_core/protocol/lufa/LUFA-git/LUFA/Drivers/USB/Core/AVR8/../AVR8/../AVR8/Endpoint_AVR8.h **** 				while (CheckBytes < Bytes)
 101:../tmk_core/protocol/lufa/LUFA-git/LUFA/Drivers/USB/Core/AVR8/../AVR8/../AVR8/Endpoint_AVR8.h **** 				{
 102:../tmk_core/protocol/lufa/LUFA-git/LUFA/Drivers/USB/Core/AVR8/../AVR8/../AVR8/Endpoint_AVR8.h **** 					MaskVal++;
 103:../tmk_core/protocol/lufa/LUFA-git/LUFA/Drivers/USB/Core/AVR8/../AVR8/../AVR8/Endpoint_AVR8.h **** 					CheckBytes <<= 1;
 104:../tmk_core/protocol/lufa/LUFA-git/LUFA/Drivers/USB/Core/AVR8/../AVR8/../AVR8/Endpoint_AVR8.h **** 				}
 105:../tmk_core/protocol/lufa/LUFA-git/LUFA/Drivers/USB/Core/AVR8/../AVR8/../AVR8/Endpoint_AVR8.h **** 
 106:../tmk_core/protocol/lufa/LUFA-git/LUFA/Drivers/USB/Core/AVR8/../AVR8/../AVR8/Endpoint_AVR8.h **** 				return (MaskVal << EPSIZE0);
 107:../tmk_core/protocol/lufa/LUFA-git/LUFA/Drivers/USB/Core/AVR8/../AVR8/../AVR8/Endpoint_AVR8.h **** 			}
 108:../tmk_core/protocol/lufa/LUFA-git/LUFA/Drivers/USB/Core/AVR8/../AVR8/../AVR8/Endpoint_AVR8.h **** 
 109:../tmk_core/protocol/lufa/LUFA-git/LUFA/Drivers/USB/Core/AVR8/../AVR8/../AVR8/Endpoint_AVR8.h **** 		/* Function Prototypes: */
 110:../tmk_core/protocol/lufa/LUFA-git/LUFA/Drivers/USB/Core/AVR8/../AVR8/../AVR8/Endpoint_AVR8.h **** 			void Endpoint_ClearEndpoints(void);
 111:../tmk_core/protocol/lufa/LUFA-git/LUFA/Drivers/USB/Core/AVR8/../AVR8/../AVR8/Endpoint_AVR8.h **** 			bool Endpoint_ConfigureEndpoint_Prv(const uint8_t Number,
 112:../tmk_core/protocol/lufa/LUFA-git/LUFA/Drivers/USB/Core/AVR8/../AVR8/../AVR8/Endpoint_AVR8.h **** 			                                    const uint8_t UECFG0XData,
 113:../tmk_core/protocol/lufa/LUFA-git/LUFA/Drivers/USB/Core/AVR8/../AVR8/../AVR8/Endpoint_AVR8.h **** 			                                    const uint8_t UECFG1XData);
 114:../tmk_core/protocol/lufa/LUFA-git/LUFA/Drivers/USB/Core/AVR8/../AVR8/../AVR8/Endpoint_AVR8.h **** 
 115:../tmk_core/protocol/lufa/LUFA-git/LUFA/Drivers/USB/Core/AVR8/../AVR8/../AVR8/Endpoint_AVR8.h **** 	#endif
 116:../tmk_core/protocol/lufa/LUFA-git/LUFA/Drivers/USB/Core/AVR8/../AVR8/../AVR8/Endpoint_AVR8.h **** 
 117:../tmk_core/protocol/lufa/LUFA-git/LUFA/Drivers/USB/Core/AVR8/../AVR8/../AVR8/Endpoint_AVR8.h **** 	/* Public Interface - May be used in end-application: */
 118:../tmk_core/protocol/lufa/LUFA-git/LUFA/Drivers/USB/Core/AVR8/../AVR8/../AVR8/Endpoint_AVR8.h **** 		/* Macros: */
 119:../tmk_core/protocol/lufa/LUFA-git/LUFA/Drivers/USB/Core/AVR8/../AVR8/../AVR8/Endpoint_AVR8.h **** 			#if (!defined(FIXED_CONTROL_ENDPOINT_SIZE) || defined(__DOXYGEN__))
 120:../tmk_core/protocol/lufa/LUFA-git/LUFA/Drivers/USB/Core/AVR8/../AVR8/../AVR8/Endpoint_AVR8.h **** 				/** Default size of the default control endpoint's bank, until altered by the control endpoint 
 121:../tmk_core/protocol/lufa/LUFA-git/LUFA/Drivers/USB/Core/AVR8/../AVR8/../AVR8/Endpoint_AVR8.h **** 				 *  value in the device descriptor. Not available if the \c FIXED_CONTROL_ENDPOINT_SIZE token i
 122:../tmk_core/protocol/lufa/LUFA-git/LUFA/Drivers/USB/Core/AVR8/../AVR8/../AVR8/Endpoint_AVR8.h **** 				 */
 123:../tmk_core/protocol/lufa/LUFA-git/LUFA/Drivers/USB/Core/AVR8/../AVR8/../AVR8/Endpoint_AVR8.h **** 				#define ENDPOINT_CONTROLEP_DEFAULT_SIZE     8
 124:../tmk_core/protocol/lufa/LUFA-git/LUFA/Drivers/USB/Core/AVR8/../AVR8/../AVR8/Endpoint_AVR8.h **** 			#endif
 125:../tmk_core/protocol/lufa/LUFA-git/LUFA/Drivers/USB/Core/AVR8/../AVR8/../AVR8/Endpoint_AVR8.h **** 
 126:../tmk_core/protocol/lufa/LUFA-git/LUFA/Drivers/USB/Core/AVR8/../AVR8/../AVR8/Endpoint_AVR8.h **** 			#if !defined(CONTROL_ONLY_DEVICE) || defined(__DOXYGEN__)
 127:../tmk_core/protocol/lufa/LUFA-git/LUFA/Drivers/USB/Core/AVR8/../AVR8/../AVR8/Endpoint_AVR8.h **** 				#if defined(USB_SERIES_4_AVR) || defined(USB_SERIES_6_AVR) || defined(USB_SERIES_7_AVR) || defi
 128:../tmk_core/protocol/lufa/LUFA-git/LUFA/Drivers/USB/Core/AVR8/../AVR8/../AVR8/Endpoint_AVR8.h **** 					/** Total number of endpoints (including the default control endpoint at address 0) which may
 129:../tmk_core/protocol/lufa/LUFA-git/LUFA/Drivers/USB/Core/AVR8/../AVR8/../AVR8/Endpoint_AVR8.h **** 					 *  be used in the device. Different USB AVR models support different amounts of endpoints,
 130:../tmk_core/protocol/lufa/LUFA-git/LUFA/Drivers/USB/Core/AVR8/../AVR8/../AVR8/Endpoint_AVR8.h **** 					 *  this value reflects the maximum number of endpoints for the currently selected AVR model.
 131:../tmk_core/protocol/lufa/LUFA-git/LUFA/Drivers/USB/Core/AVR8/../AVR8/../AVR8/Endpoint_AVR8.h **** 					 */
 132:../tmk_core/protocol/lufa/LUFA-git/LUFA/Drivers/USB/Core/AVR8/../AVR8/../AVR8/Endpoint_AVR8.h **** 					#define ENDPOINT_TOTAL_ENDPOINTS        7
 133:../tmk_core/protocol/lufa/LUFA-git/LUFA/Drivers/USB/Core/AVR8/../AVR8/../AVR8/Endpoint_AVR8.h **** 				#else
 134:../tmk_core/protocol/lufa/LUFA-git/LUFA/Drivers/USB/Core/AVR8/../AVR8/../AVR8/Endpoint_AVR8.h **** 					#define ENDPOINT_TOTAL_ENDPOINTS        5
 135:../tmk_core/protocol/lufa/LUFA-git/LUFA/Drivers/USB/Core/AVR8/../AVR8/../AVR8/Endpoint_AVR8.h **** 				#endif
 136:../tmk_core/protocol/lufa/LUFA-git/LUFA/Drivers/USB/Core/AVR8/../AVR8/../AVR8/Endpoint_AVR8.h **** 			#else
 137:../tmk_core/protocol/lufa/LUFA-git/LUFA/Drivers/USB/Core/AVR8/../AVR8/../AVR8/Endpoint_AVR8.h **** 				#define ENDPOINT_TOTAL_ENDPOINTS            1
 138:../tmk_core/protocol/lufa/LUFA-git/LUFA/Drivers/USB/Core/AVR8/../AVR8/../AVR8/Endpoint_AVR8.h **** 			#endif
 139:../tmk_core/protocol/lufa/LUFA-git/LUFA/Drivers/USB/Core/AVR8/../AVR8/../AVR8/Endpoint_AVR8.h **** 
 140:../tmk_core/protocol/lufa/LUFA-git/LUFA/Drivers/USB/Core/AVR8/../AVR8/../AVR8/Endpoint_AVR8.h **** 		/* Enums: */
 141:../tmk_core/protocol/lufa/LUFA-git/LUFA/Drivers/USB/Core/AVR8/../AVR8/../AVR8/Endpoint_AVR8.h **** 			/** Enum for the possible error return codes of the \ref Endpoint_WaitUntilReady() function.
 142:../tmk_core/protocol/lufa/LUFA-git/LUFA/Drivers/USB/Core/AVR8/../AVR8/../AVR8/Endpoint_AVR8.h **** 			 *
 143:../tmk_core/protocol/lufa/LUFA-git/LUFA/Drivers/USB/Core/AVR8/../AVR8/../AVR8/Endpoint_AVR8.h **** 			 *  \ingroup Group_EndpointRW_AVR8
 144:../tmk_core/protocol/lufa/LUFA-git/LUFA/Drivers/USB/Core/AVR8/../AVR8/../AVR8/Endpoint_AVR8.h **** 			 */
 145:../tmk_core/protocol/lufa/LUFA-git/LUFA/Drivers/USB/Core/AVR8/../AVR8/../AVR8/Endpoint_AVR8.h **** 			enum Endpoint_WaitUntilReady_ErrorCodes_t
 146:../tmk_core/protocol/lufa/LUFA-git/LUFA/Drivers/USB/Core/AVR8/../AVR8/../AVR8/Endpoint_AVR8.h **** 			{
 147:../tmk_core/protocol/lufa/LUFA-git/LUFA/Drivers/USB/Core/AVR8/../AVR8/../AVR8/Endpoint_AVR8.h **** 				ENDPOINT_READYWAIT_NoError                 = 0, /**< Endpoint is ready for next packet, no erro
 148:../tmk_core/protocol/lufa/LUFA-git/LUFA/Drivers/USB/Core/AVR8/../AVR8/../AVR8/Endpoint_AVR8.h **** 				ENDPOINT_READYWAIT_EndpointStalled         = 1, /**< The endpoint was stalled during the stream
 149:../tmk_core/protocol/lufa/LUFA-git/LUFA/Drivers/USB/Core/AVR8/../AVR8/../AVR8/Endpoint_AVR8.h **** 				                                                 *   transfer by the host or device.
 150:../tmk_core/protocol/lufa/LUFA-git/LUFA/Drivers/USB/Core/AVR8/../AVR8/../AVR8/Endpoint_AVR8.h **** 				                                                 */
 151:../tmk_core/protocol/lufa/LUFA-git/LUFA/Drivers/USB/Core/AVR8/../AVR8/../AVR8/Endpoint_AVR8.h **** 				ENDPOINT_READYWAIT_DeviceDisconnected      = 2,	/**< Device was disconnected from the host whil
 152:../tmk_core/protocol/lufa/LUFA-git/LUFA/Drivers/USB/Core/AVR8/../AVR8/../AVR8/Endpoint_AVR8.h **** 				                                                 *   waiting for the endpoint to become ready.
 153:../tmk_core/protocol/lufa/LUFA-git/LUFA/Drivers/USB/Core/AVR8/../AVR8/../AVR8/Endpoint_AVR8.h **** 				                                                 */
 154:../tmk_core/protocol/lufa/LUFA-git/LUFA/Drivers/USB/Core/AVR8/../AVR8/../AVR8/Endpoint_AVR8.h **** 				ENDPOINT_READYWAIT_BusSuspended            = 3, /**< The USB bus has been suspended by the host
 155:../tmk_core/protocol/lufa/LUFA-git/LUFA/Drivers/USB/Core/AVR8/../AVR8/../AVR8/Endpoint_AVR8.h **** 				                                                 *   no USB endpoint traffic can occur until th
 156:../tmk_core/protocol/lufa/LUFA-git/LUFA/Drivers/USB/Core/AVR8/../AVR8/../AVR8/Endpoint_AVR8.h **** 				                                                 *   has resumed.
 157:../tmk_core/protocol/lufa/LUFA-git/LUFA/Drivers/USB/Core/AVR8/../AVR8/../AVR8/Endpoint_AVR8.h **** 				                                                 */
 158:../tmk_core/protocol/lufa/LUFA-git/LUFA/Drivers/USB/Core/AVR8/../AVR8/../AVR8/Endpoint_AVR8.h **** 				ENDPOINT_READYWAIT_Timeout                 = 4, /**< The host failed to accept or send the next
 159:../tmk_core/protocol/lufa/LUFA-git/LUFA/Drivers/USB/Core/AVR8/../AVR8/../AVR8/Endpoint_AVR8.h **** 				                                                 *   within the software timeout period set by 
 160:../tmk_core/protocol/lufa/LUFA-git/LUFA/Drivers/USB/Core/AVR8/../AVR8/../AVR8/Endpoint_AVR8.h **** 				                                                 *   \ref USB_STREAM_TIMEOUT_MS macro.
 161:../tmk_core/protocol/lufa/LUFA-git/LUFA/Drivers/USB/Core/AVR8/../AVR8/../AVR8/Endpoint_AVR8.h **** 				                                                 */
 162:../tmk_core/protocol/lufa/LUFA-git/LUFA/Drivers/USB/Core/AVR8/../AVR8/../AVR8/Endpoint_AVR8.h **** 			};
 163:../tmk_core/protocol/lufa/LUFA-git/LUFA/Drivers/USB/Core/AVR8/../AVR8/../AVR8/Endpoint_AVR8.h **** 
 164:../tmk_core/protocol/lufa/LUFA-git/LUFA/Drivers/USB/Core/AVR8/../AVR8/../AVR8/Endpoint_AVR8.h **** 		/* Inline Functions: */
 165:../tmk_core/protocol/lufa/LUFA-git/LUFA/Drivers/USB/Core/AVR8/../AVR8/../AVR8/Endpoint_AVR8.h **** 			/** Configures the specified endpoint address with the given endpoint type, bank size and number
 166:../tmk_core/protocol/lufa/LUFA-git/LUFA/Drivers/USB/Core/AVR8/../AVR8/../AVR8/Endpoint_AVR8.h **** 			 *  banks. Once configured, the endpoint may be read from or written to, depending on its direct
 167:../tmk_core/protocol/lufa/LUFA-git/LUFA/Drivers/USB/Core/AVR8/../AVR8/../AVR8/Endpoint_AVR8.h **** 			 *
 168:../tmk_core/protocol/lufa/LUFA-git/LUFA/Drivers/USB/Core/AVR8/../AVR8/../AVR8/Endpoint_AVR8.h **** 			 *  \param[in] Address    Endpoint address to configure.
 169:../tmk_core/protocol/lufa/LUFA-git/LUFA/Drivers/USB/Core/AVR8/../AVR8/../AVR8/Endpoint_AVR8.h **** 			 *
 170:../tmk_core/protocol/lufa/LUFA-git/LUFA/Drivers/USB/Core/AVR8/../AVR8/../AVR8/Endpoint_AVR8.h **** 			 *  \param[in] Type       Type of endpoint to configure, a \c EP_TYPE_* mask. Not all endpoint t
 171:../tmk_core/protocol/lufa/LUFA-git/LUFA/Drivers/USB/Core/AVR8/../AVR8/../AVR8/Endpoint_AVR8.h **** 			 *                        are available on Low Speed USB devices - refer to the USB 2.0 specific
 172:../tmk_core/protocol/lufa/LUFA-git/LUFA/Drivers/USB/Core/AVR8/../AVR8/../AVR8/Endpoint_AVR8.h **** 			 *
 173:../tmk_core/protocol/lufa/LUFA-git/LUFA/Drivers/USB/Core/AVR8/../AVR8/../AVR8/Endpoint_AVR8.h **** 			 *  \param[in] Size       Size of the endpoint's bank, where packets are stored before they are 
 174:../tmk_core/protocol/lufa/LUFA-git/LUFA/Drivers/USB/Core/AVR8/../AVR8/../AVR8/Endpoint_AVR8.h **** 			 *                        to the USB host, or after they have been received from the USB host (d
 175:../tmk_core/protocol/lufa/LUFA-git/LUFA/Drivers/USB/Core/AVR8/../AVR8/../AVR8/Endpoint_AVR8.h **** 			 *                        the endpoint's data direction). The bank size must indicate the maximu
 176:../tmk_core/protocol/lufa/LUFA-git/LUFA/Drivers/USB/Core/AVR8/../AVR8/../AVR8/Endpoint_AVR8.h **** 			 *                        that the endpoint can handle.
 177:../tmk_core/protocol/lufa/LUFA-git/LUFA/Drivers/USB/Core/AVR8/../AVR8/../AVR8/Endpoint_AVR8.h **** 			 *
 178:../tmk_core/protocol/lufa/LUFA-git/LUFA/Drivers/USB/Core/AVR8/../AVR8/../AVR8/Endpoint_AVR8.h **** 			 *  \param[in] Banks      Number of banks to use for the endpoint being configured.
 179:../tmk_core/protocol/lufa/LUFA-git/LUFA/Drivers/USB/Core/AVR8/../AVR8/../AVR8/Endpoint_AVR8.h **** 			 *
 180:../tmk_core/protocol/lufa/LUFA-git/LUFA/Drivers/USB/Core/AVR8/../AVR8/../AVR8/Endpoint_AVR8.h **** 			 *  \attention When the \c ORDERED_EP_CONFIG compile time option is used, Endpoints <b>must</b> 
 181:../tmk_core/protocol/lufa/LUFA-git/LUFA/Drivers/USB/Core/AVR8/../AVR8/../AVR8/Endpoint_AVR8.h **** 			 *             ascending order, or bank corruption will occur.
 182:../tmk_core/protocol/lufa/LUFA-git/LUFA/Drivers/USB/Core/AVR8/../AVR8/../AVR8/Endpoint_AVR8.h **** 			 *
 183:../tmk_core/protocol/lufa/LUFA-git/LUFA/Drivers/USB/Core/AVR8/../AVR8/../AVR8/Endpoint_AVR8.h **** 			 *  \note Different endpoints may have different maximum packet sizes based on the endpoint's in
 184:../tmk_core/protocol/lufa/LUFA-git/LUFA/Drivers/USB/Core/AVR8/../AVR8/../AVR8/Endpoint_AVR8.h **** 			 *        refer to the chosen microcontroller model's datasheet to determine the maximum bank si
 185:../tmk_core/protocol/lufa/LUFA-git/LUFA/Drivers/USB/Core/AVR8/../AVR8/../AVR8/Endpoint_AVR8.h **** 			 *        \n\n
 186:../tmk_core/protocol/lufa/LUFA-git/LUFA/Drivers/USB/Core/AVR8/../AVR8/../AVR8/Endpoint_AVR8.h **** 			 *
 187:../tmk_core/protocol/lufa/LUFA-git/LUFA/Drivers/USB/Core/AVR8/../AVR8/../AVR8/Endpoint_AVR8.h **** 			 *  \note The default control endpoint should not be manually configured by the user application
 188:../tmk_core/protocol/lufa/LUFA-git/LUFA/Drivers/USB/Core/AVR8/../AVR8/../AVR8/Endpoint_AVR8.h **** 			 *        it is automatically configured by the library internally.
 189:../tmk_core/protocol/lufa/LUFA-git/LUFA/Drivers/USB/Core/AVR8/../AVR8/../AVR8/Endpoint_AVR8.h **** 			 *        \n\n
 190:../tmk_core/protocol/lufa/LUFA-git/LUFA/Drivers/USB/Core/AVR8/../AVR8/../AVR8/Endpoint_AVR8.h **** 			 *
 191:../tmk_core/protocol/lufa/LUFA-git/LUFA/Drivers/USB/Core/AVR8/../AVR8/../AVR8/Endpoint_AVR8.h **** 			 *  \note This routine will automatically select the specified endpoint upon success. Upon failu
 192:../tmk_core/protocol/lufa/LUFA-git/LUFA/Drivers/USB/Core/AVR8/../AVR8/../AVR8/Endpoint_AVR8.h **** 			 *        which failed to reconfigure correctly will be selected.
 193:../tmk_core/protocol/lufa/LUFA-git/LUFA/Drivers/USB/Core/AVR8/../AVR8/../AVR8/Endpoint_AVR8.h **** 			 *
 194:../tmk_core/protocol/lufa/LUFA-git/LUFA/Drivers/USB/Core/AVR8/../AVR8/../AVR8/Endpoint_AVR8.h **** 			 *  \return Boolean \c true if the configuration succeeded, \c false otherwise.
 195:../tmk_core/protocol/lufa/LUFA-git/LUFA/Drivers/USB/Core/AVR8/../AVR8/../AVR8/Endpoint_AVR8.h **** 			 */
 196:../tmk_core/protocol/lufa/LUFA-git/LUFA/Drivers/USB/Core/AVR8/../AVR8/../AVR8/Endpoint_AVR8.h **** 			static inline bool Endpoint_ConfigureEndpoint(const uint8_t Address,
 197:../tmk_core/protocol/lufa/LUFA-git/LUFA/Drivers/USB/Core/AVR8/../AVR8/../AVR8/Endpoint_AVR8.h **** 			                                              const uint8_t Type,
 198:../tmk_core/protocol/lufa/LUFA-git/LUFA/Drivers/USB/Core/AVR8/../AVR8/../AVR8/Endpoint_AVR8.h **** 			                                              const uint16_t Size,
 199:../tmk_core/protocol/lufa/LUFA-git/LUFA/Drivers/USB/Core/AVR8/../AVR8/../AVR8/Endpoint_AVR8.h **** 			                                              const uint8_t Banks) ATTR_ALWAYS_INLINE;
 200:../tmk_core/protocol/lufa/LUFA-git/LUFA/Drivers/USB/Core/AVR8/../AVR8/../AVR8/Endpoint_AVR8.h **** 			static inline bool Endpoint_ConfigureEndpoint(const uint8_t Address,
 201:../tmk_core/protocol/lufa/LUFA-git/LUFA/Drivers/USB/Core/AVR8/../AVR8/../AVR8/Endpoint_AVR8.h **** 			                                              const uint8_t Type,
 202:../tmk_core/protocol/lufa/LUFA-git/LUFA/Drivers/USB/Core/AVR8/../AVR8/../AVR8/Endpoint_AVR8.h **** 			                                              const uint16_t Size,
 203:../tmk_core/protocol/lufa/LUFA-git/LUFA/Drivers/USB/Core/AVR8/../AVR8/../AVR8/Endpoint_AVR8.h **** 			                                              const uint8_t Banks)
 204:../tmk_core/protocol/lufa/LUFA-git/LUFA/Drivers/USB/Core/AVR8/../AVR8/../AVR8/Endpoint_AVR8.h **** 			{
 205:../tmk_core/protocol/lufa/LUFA-git/LUFA/Drivers/USB/Core/AVR8/../AVR8/../AVR8/Endpoint_AVR8.h **** 				uint8_t Number = (Address & ENDPOINT_EPNUM_MASK);
 206:../tmk_core/protocol/lufa/LUFA-git/LUFA/Drivers/USB/Core/AVR8/../AVR8/../AVR8/Endpoint_AVR8.h **** 
 207:../tmk_core/protocol/lufa/LUFA-git/LUFA/Drivers/USB/Core/AVR8/../AVR8/../AVR8/Endpoint_AVR8.h **** 				if (Number >= ENDPOINT_TOTAL_ENDPOINTS)
 208:../tmk_core/protocol/lufa/LUFA-git/LUFA/Drivers/USB/Core/AVR8/../AVR8/../AVR8/Endpoint_AVR8.h **** 				  return false;
 209:../tmk_core/protocol/lufa/LUFA-git/LUFA/Drivers/USB/Core/AVR8/../AVR8/../AVR8/Endpoint_AVR8.h **** 
 210:../tmk_core/protocol/lufa/LUFA-git/LUFA/Drivers/USB/Core/AVR8/../AVR8/../AVR8/Endpoint_AVR8.h **** 				return Endpoint_ConfigureEndpoint_Prv(Number,
 211:../tmk_core/protocol/lufa/LUFA-git/LUFA/Drivers/USB/Core/AVR8/../AVR8/../AVR8/Endpoint_AVR8.h **** 				                                      ((Type << EPTYPE0) | ((Address & ENDPOINT_DIR_IN) ? (1 <<
 212:../tmk_core/protocol/lufa/LUFA-git/LUFA/Drivers/USB/Core/AVR8/../AVR8/../AVR8/Endpoint_AVR8.h **** 				                                      ((1 << ALLOC) | ((Banks > 1) ? (1 << EPBK0) : 0) | Endpoi
 213:../tmk_core/protocol/lufa/LUFA-git/LUFA/Drivers/USB/Core/AVR8/../AVR8/../AVR8/Endpoint_AVR8.h **** 			}
 214:../tmk_core/protocol/lufa/LUFA-git/LUFA/Drivers/USB/Core/AVR8/../AVR8/../AVR8/Endpoint_AVR8.h **** 
 215:../tmk_core/protocol/lufa/LUFA-git/LUFA/Drivers/USB/Core/AVR8/../AVR8/../AVR8/Endpoint_AVR8.h **** 			/** Indicates the number of bytes currently stored in the current endpoint's selected bank.
 216:../tmk_core/protocol/lufa/LUFA-git/LUFA/Drivers/USB/Core/AVR8/../AVR8/../AVR8/Endpoint_AVR8.h **** 			 *
 217:../tmk_core/protocol/lufa/LUFA-git/LUFA/Drivers/USB/Core/AVR8/../AVR8/../AVR8/Endpoint_AVR8.h **** 			 *  \ingroup Group_EndpointRW_AVR8
 218:../tmk_core/protocol/lufa/LUFA-git/LUFA/Drivers/USB/Core/AVR8/../AVR8/../AVR8/Endpoint_AVR8.h **** 			 *
 219:../tmk_core/protocol/lufa/LUFA-git/LUFA/Drivers/USB/Core/AVR8/../AVR8/../AVR8/Endpoint_AVR8.h **** 			 *  \return Total number of bytes in the currently selected Endpoint's FIFO buffer.
 220:../tmk_core/protocol/lufa/LUFA-git/LUFA/Drivers/USB/Core/AVR8/../AVR8/../AVR8/Endpoint_AVR8.h **** 			 */
 221:../tmk_core/protocol/lufa/LUFA-git/LUFA/Drivers/USB/Core/AVR8/../AVR8/../AVR8/Endpoint_AVR8.h **** 			static inline uint16_t Endpoint_BytesInEndpoint(void) ATTR_WARN_UNUSED_RESULT ATTR_ALWAYS_INLINE
 222:../tmk_core/protocol/lufa/LUFA-git/LUFA/Drivers/USB/Core/AVR8/../AVR8/../AVR8/Endpoint_AVR8.h **** 			static inline uint16_t Endpoint_BytesInEndpoint(void)
 223:../tmk_core/protocol/lufa/LUFA-git/LUFA/Drivers/USB/Core/AVR8/../AVR8/../AVR8/Endpoint_AVR8.h **** 			{
 224:../tmk_core/protocol/lufa/LUFA-git/LUFA/Drivers/USB/Core/AVR8/../AVR8/../AVR8/Endpoint_AVR8.h **** 				#if (defined(USB_SERIES_6_AVR) || defined(USB_SERIES_7_AVR))
 225:../tmk_core/protocol/lufa/LUFA-git/LUFA/Drivers/USB/Core/AVR8/../AVR8/../AVR8/Endpoint_AVR8.h **** 					return UEBCX;
 226:../tmk_core/protocol/lufa/LUFA-git/LUFA/Drivers/USB/Core/AVR8/../AVR8/../AVR8/Endpoint_AVR8.h **** 				#elif defined(USB_SERIES_4_AVR)
 227:../tmk_core/protocol/lufa/LUFA-git/LUFA/Drivers/USB/Core/AVR8/../AVR8/../AVR8/Endpoint_AVR8.h **** 					return (((uint16_t)UEBCHX << 8) | UEBCLX);
 228:../tmk_core/protocol/lufa/LUFA-git/LUFA/Drivers/USB/Core/AVR8/../AVR8/../AVR8/Endpoint_AVR8.h **** 				#elif defined(USB_SERIES_2_AVR)
 229:../tmk_core/protocol/lufa/LUFA-git/LUFA/Drivers/USB/Core/AVR8/../AVR8/../AVR8/Endpoint_AVR8.h **** 					return UEBCLX;
 230:../tmk_core/protocol/lufa/LUFA-git/LUFA/Drivers/USB/Core/AVR8/../AVR8/../AVR8/Endpoint_AVR8.h **** 				#endif
 231:../tmk_core/protocol/lufa/LUFA-git/LUFA/Drivers/USB/Core/AVR8/../AVR8/../AVR8/Endpoint_AVR8.h **** 			}
 232:../tmk_core/protocol/lufa/LUFA-git/LUFA/Drivers/USB/Core/AVR8/../AVR8/../AVR8/Endpoint_AVR8.h **** 
 233:../tmk_core/protocol/lufa/LUFA-git/LUFA/Drivers/USB/Core/AVR8/../AVR8/../AVR8/Endpoint_AVR8.h **** 			/** Determines the currently selected endpoint's direction.
 234:../tmk_core/protocol/lufa/LUFA-git/LUFA/Drivers/USB/Core/AVR8/../AVR8/../AVR8/Endpoint_AVR8.h **** 			 *
 235:../tmk_core/protocol/lufa/LUFA-git/LUFA/Drivers/USB/Core/AVR8/../AVR8/../AVR8/Endpoint_AVR8.h **** 			 *  \return The currently selected endpoint's direction, as a \c ENDPOINT_DIR_* mask.
 236:../tmk_core/protocol/lufa/LUFA-git/LUFA/Drivers/USB/Core/AVR8/../AVR8/../AVR8/Endpoint_AVR8.h **** 			 */
 237:../tmk_core/protocol/lufa/LUFA-git/LUFA/Drivers/USB/Core/AVR8/../AVR8/../AVR8/Endpoint_AVR8.h **** 			static inline uint8_t Endpoint_GetEndpointDirection(void) ATTR_WARN_UNUSED_RESULT ATTR_ALWAYS_IN
 238:../tmk_core/protocol/lufa/LUFA-git/LUFA/Drivers/USB/Core/AVR8/../AVR8/../AVR8/Endpoint_AVR8.h **** 			static inline uint8_t Endpoint_GetEndpointDirection(void)
 239:../tmk_core/protocol/lufa/LUFA-git/LUFA/Drivers/USB/Core/AVR8/../AVR8/../AVR8/Endpoint_AVR8.h **** 			{
 240:../tmk_core/protocol/lufa/LUFA-git/LUFA/Drivers/USB/Core/AVR8/../AVR8/../AVR8/Endpoint_AVR8.h **** 				return (UECFG0X & (1 << EPDIR)) ? ENDPOINT_DIR_IN : ENDPOINT_DIR_OUT;
 241:../tmk_core/protocol/lufa/LUFA-git/LUFA/Drivers/USB/Core/AVR8/../AVR8/../AVR8/Endpoint_AVR8.h **** 			}
 242:../tmk_core/protocol/lufa/LUFA-git/LUFA/Drivers/USB/Core/AVR8/../AVR8/../AVR8/Endpoint_AVR8.h **** 
 243:../tmk_core/protocol/lufa/LUFA-git/LUFA/Drivers/USB/Core/AVR8/../AVR8/../AVR8/Endpoint_AVR8.h **** 			/** Get the endpoint address of the currently selected endpoint. This is typically used to save
 244:../tmk_core/protocol/lufa/LUFA-git/LUFA/Drivers/USB/Core/AVR8/../AVR8/../AVR8/Endpoint_AVR8.h **** 			 *  the currently selected endpoint so that it can be restored after another endpoint has been
 245:../tmk_core/protocol/lufa/LUFA-git/LUFA/Drivers/USB/Core/AVR8/../AVR8/../AVR8/Endpoint_AVR8.h **** 			 *  manipulated.
 246:../tmk_core/protocol/lufa/LUFA-git/LUFA/Drivers/USB/Core/AVR8/../AVR8/../AVR8/Endpoint_AVR8.h **** 			 *
 247:../tmk_core/protocol/lufa/LUFA-git/LUFA/Drivers/USB/Core/AVR8/../AVR8/../AVR8/Endpoint_AVR8.h **** 			 *  \return Index of the currently selected endpoint.
 248:../tmk_core/protocol/lufa/LUFA-git/LUFA/Drivers/USB/Core/AVR8/../AVR8/../AVR8/Endpoint_AVR8.h **** 			 */
 249:../tmk_core/protocol/lufa/LUFA-git/LUFA/Drivers/USB/Core/AVR8/../AVR8/../AVR8/Endpoint_AVR8.h **** 			static inline uint8_t Endpoint_GetCurrentEndpoint(void) ATTR_WARN_UNUSED_RESULT ATTR_ALWAYS_INLI
 250:../tmk_core/protocol/lufa/LUFA-git/LUFA/Drivers/USB/Core/AVR8/../AVR8/../AVR8/Endpoint_AVR8.h **** 			static inline uint8_t Endpoint_GetCurrentEndpoint(void)
 251:../tmk_core/protocol/lufa/LUFA-git/LUFA/Drivers/USB/Core/AVR8/../AVR8/../AVR8/Endpoint_AVR8.h **** 			{
 252:../tmk_core/protocol/lufa/LUFA-git/LUFA/Drivers/USB/Core/AVR8/../AVR8/../AVR8/Endpoint_AVR8.h **** 				#if !defined(CONTROL_ONLY_DEVICE)
 253:../tmk_core/protocol/lufa/LUFA-git/LUFA/Drivers/USB/Core/AVR8/../AVR8/../AVR8/Endpoint_AVR8.h **** 					return ((UENUM & ENDPOINT_EPNUM_MASK) | Endpoint_GetEndpointDirection());
 254:../tmk_core/protocol/lufa/LUFA-git/LUFA/Drivers/USB/Core/AVR8/../AVR8/../AVR8/Endpoint_AVR8.h **** 				#else
 255:../tmk_core/protocol/lufa/LUFA-git/LUFA/Drivers/USB/Core/AVR8/../AVR8/../AVR8/Endpoint_AVR8.h **** 					return ENDPOINT_CONTROLEP;
 256:../tmk_core/protocol/lufa/LUFA-git/LUFA/Drivers/USB/Core/AVR8/../AVR8/../AVR8/Endpoint_AVR8.h **** 				#endif
 257:../tmk_core/protocol/lufa/LUFA-git/LUFA/Drivers/USB/Core/AVR8/../AVR8/../AVR8/Endpoint_AVR8.h **** 			}
 258:../tmk_core/protocol/lufa/LUFA-git/LUFA/Drivers/USB/Core/AVR8/../AVR8/../AVR8/Endpoint_AVR8.h **** 
 259:../tmk_core/protocol/lufa/LUFA-git/LUFA/Drivers/USB/Core/AVR8/../AVR8/../AVR8/Endpoint_AVR8.h **** 			/** Selects the given endpoint address.
 260:../tmk_core/protocol/lufa/LUFA-git/LUFA/Drivers/USB/Core/AVR8/../AVR8/../AVR8/Endpoint_AVR8.h **** 			 *
 261:../tmk_core/protocol/lufa/LUFA-git/LUFA/Drivers/USB/Core/AVR8/../AVR8/../AVR8/Endpoint_AVR8.h **** 			 *  Any endpoint operations which do not require the endpoint address to be indicated will opera
 262:../tmk_core/protocol/lufa/LUFA-git/LUFA/Drivers/USB/Core/AVR8/../AVR8/../AVR8/Endpoint_AVR8.h **** 			 *  the currently selected endpoint.
 263:../tmk_core/protocol/lufa/LUFA-git/LUFA/Drivers/USB/Core/AVR8/../AVR8/../AVR8/Endpoint_AVR8.h **** 			 *
 264:../tmk_core/protocol/lufa/LUFA-git/LUFA/Drivers/USB/Core/AVR8/../AVR8/../AVR8/Endpoint_AVR8.h **** 			 *  \param[in] Address Endpoint address to select.
 265:../tmk_core/protocol/lufa/LUFA-git/LUFA/Drivers/USB/Core/AVR8/../AVR8/../AVR8/Endpoint_AVR8.h **** 			 */
 266:../tmk_core/protocol/lufa/LUFA-git/LUFA/Drivers/USB/Core/AVR8/../AVR8/../AVR8/Endpoint_AVR8.h **** 			static inline void Endpoint_SelectEndpoint(const uint8_t Address) ATTR_ALWAYS_INLINE;
 267:../tmk_core/protocol/lufa/LUFA-git/LUFA/Drivers/USB/Core/AVR8/../AVR8/../AVR8/Endpoint_AVR8.h **** 			static inline void Endpoint_SelectEndpoint(const uint8_t Address)
 268:../tmk_core/protocol/lufa/LUFA-git/LUFA/Drivers/USB/Core/AVR8/../AVR8/../AVR8/Endpoint_AVR8.h **** 			{
 269:../tmk_core/protocol/lufa/LUFA-git/LUFA/Drivers/USB/Core/AVR8/../AVR8/../AVR8/Endpoint_AVR8.h **** 				#if !defined(CONTROL_ONLY_DEVICE)
 270:../tmk_core/protocol/lufa/LUFA-git/LUFA/Drivers/USB/Core/AVR8/../AVR8/../AVR8/Endpoint_AVR8.h **** 					UENUM = (Address & ENDPOINT_EPNUM_MASK);
 271:../tmk_core/protocol/lufa/LUFA-git/LUFA/Drivers/USB/Core/AVR8/../AVR8/../AVR8/Endpoint_AVR8.h **** 				#endif
 272:../tmk_core/protocol/lufa/LUFA-git/LUFA/Drivers/USB/Core/AVR8/../AVR8/../AVR8/Endpoint_AVR8.h **** 			}
 273:../tmk_core/protocol/lufa/LUFA-git/LUFA/Drivers/USB/Core/AVR8/../AVR8/../AVR8/Endpoint_AVR8.h **** 
 274:../tmk_core/protocol/lufa/LUFA-git/LUFA/Drivers/USB/Core/AVR8/../AVR8/../AVR8/Endpoint_AVR8.h **** 			/** Resets the endpoint bank FIFO. This clears all the endpoint banks and resets the USB control
 275:../tmk_core/protocol/lufa/LUFA-git/LUFA/Drivers/USB/Core/AVR8/../AVR8/../AVR8/Endpoint_AVR8.h **** 			 *  data In and Out pointers to the bank's contents.
 276:../tmk_core/protocol/lufa/LUFA-git/LUFA/Drivers/USB/Core/AVR8/../AVR8/../AVR8/Endpoint_AVR8.h **** 			 *
 277:../tmk_core/protocol/lufa/LUFA-git/LUFA/Drivers/USB/Core/AVR8/../AVR8/../AVR8/Endpoint_AVR8.h **** 			 *  \param[in] Address  Endpoint address whose FIFO buffers are to be reset.
 278:../tmk_core/protocol/lufa/LUFA-git/LUFA/Drivers/USB/Core/AVR8/../AVR8/../AVR8/Endpoint_AVR8.h **** 			 */
 279:../tmk_core/protocol/lufa/LUFA-git/LUFA/Drivers/USB/Core/AVR8/../AVR8/../AVR8/Endpoint_AVR8.h **** 			static inline void Endpoint_ResetEndpoint(const uint8_t Address) ATTR_ALWAYS_INLINE;
 280:../tmk_core/protocol/lufa/LUFA-git/LUFA/Drivers/USB/Core/AVR8/../AVR8/../AVR8/Endpoint_AVR8.h **** 			static inline void Endpoint_ResetEndpoint(const uint8_t Address)
 281:../tmk_core/protocol/lufa/LUFA-git/LUFA/Drivers/USB/Core/AVR8/../AVR8/../AVR8/Endpoint_AVR8.h **** 			{
 282:../tmk_core/protocol/lufa/LUFA-git/LUFA/Drivers/USB/Core/AVR8/../AVR8/../AVR8/Endpoint_AVR8.h **** 				UERST = (1 << (Address & ENDPOINT_EPNUM_MASK));
 283:../tmk_core/protocol/lufa/LUFA-git/LUFA/Drivers/USB/Core/AVR8/../AVR8/../AVR8/Endpoint_AVR8.h **** 				UERST = 0;
 284:../tmk_core/protocol/lufa/LUFA-git/LUFA/Drivers/USB/Core/AVR8/../AVR8/../AVR8/Endpoint_AVR8.h **** 			}
 285:../tmk_core/protocol/lufa/LUFA-git/LUFA/Drivers/USB/Core/AVR8/../AVR8/../AVR8/Endpoint_AVR8.h **** 
 286:../tmk_core/protocol/lufa/LUFA-git/LUFA/Drivers/USB/Core/AVR8/../AVR8/../AVR8/Endpoint_AVR8.h **** 			/** Enables the currently selected endpoint so that data can be sent and received through it to
 287:../tmk_core/protocol/lufa/LUFA-git/LUFA/Drivers/USB/Core/AVR8/../AVR8/../AVR8/Endpoint_AVR8.h **** 			 *  and from a host.
 288:../tmk_core/protocol/lufa/LUFA-git/LUFA/Drivers/USB/Core/AVR8/../AVR8/../AVR8/Endpoint_AVR8.h **** 			 *
 289:../tmk_core/protocol/lufa/LUFA-git/LUFA/Drivers/USB/Core/AVR8/../AVR8/../AVR8/Endpoint_AVR8.h **** 			 *  \note Endpoints must first be configured properly via \ref Endpoint_ConfigureEndpoint().
 290:../tmk_core/protocol/lufa/LUFA-git/LUFA/Drivers/USB/Core/AVR8/../AVR8/../AVR8/Endpoint_AVR8.h **** 			 */
 291:../tmk_core/protocol/lufa/LUFA-git/LUFA/Drivers/USB/Core/AVR8/../AVR8/../AVR8/Endpoint_AVR8.h **** 			static inline void Endpoint_EnableEndpoint(void) ATTR_ALWAYS_INLINE;
 292:../tmk_core/protocol/lufa/LUFA-git/LUFA/Drivers/USB/Core/AVR8/../AVR8/../AVR8/Endpoint_AVR8.h **** 			static inline void Endpoint_EnableEndpoint(void)
 293:../tmk_core/protocol/lufa/LUFA-git/LUFA/Drivers/USB/Core/AVR8/../AVR8/../AVR8/Endpoint_AVR8.h **** 			{
 294:../tmk_core/protocol/lufa/LUFA-git/LUFA/Drivers/USB/Core/AVR8/../AVR8/../AVR8/Endpoint_AVR8.h **** 				UECONX |= (1 << EPEN);
 295:../tmk_core/protocol/lufa/LUFA-git/LUFA/Drivers/USB/Core/AVR8/../AVR8/../AVR8/Endpoint_AVR8.h **** 			}
 296:../tmk_core/protocol/lufa/LUFA-git/LUFA/Drivers/USB/Core/AVR8/../AVR8/../AVR8/Endpoint_AVR8.h **** 
 297:../tmk_core/protocol/lufa/LUFA-git/LUFA/Drivers/USB/Core/AVR8/../AVR8/../AVR8/Endpoint_AVR8.h **** 			/** Disables the currently selected endpoint so that data cannot be sent and received through it
 298:../tmk_core/protocol/lufa/LUFA-git/LUFA/Drivers/USB/Core/AVR8/../AVR8/../AVR8/Endpoint_AVR8.h **** 			 *  to and from a host.
 299:../tmk_core/protocol/lufa/LUFA-git/LUFA/Drivers/USB/Core/AVR8/../AVR8/../AVR8/Endpoint_AVR8.h **** 			 */
 300:../tmk_core/protocol/lufa/LUFA-git/LUFA/Drivers/USB/Core/AVR8/../AVR8/../AVR8/Endpoint_AVR8.h **** 			static inline void Endpoint_DisableEndpoint(void) ATTR_ALWAYS_INLINE;
 301:../tmk_core/protocol/lufa/LUFA-git/LUFA/Drivers/USB/Core/AVR8/../AVR8/../AVR8/Endpoint_AVR8.h **** 			static inline void Endpoint_DisableEndpoint(void)
 302:../tmk_core/protocol/lufa/LUFA-git/LUFA/Drivers/USB/Core/AVR8/../AVR8/../AVR8/Endpoint_AVR8.h **** 			{
 303:../tmk_core/protocol/lufa/LUFA-git/LUFA/Drivers/USB/Core/AVR8/../AVR8/../AVR8/Endpoint_AVR8.h **** 				UECONX &= ~(1 << EPEN);
 304:../tmk_core/protocol/lufa/LUFA-git/LUFA/Drivers/USB/Core/AVR8/../AVR8/../AVR8/Endpoint_AVR8.h **** 			}
 305:../tmk_core/protocol/lufa/LUFA-git/LUFA/Drivers/USB/Core/AVR8/../AVR8/../AVR8/Endpoint_AVR8.h **** 
 306:../tmk_core/protocol/lufa/LUFA-git/LUFA/Drivers/USB/Core/AVR8/../AVR8/../AVR8/Endpoint_AVR8.h **** 			/** Determines if the currently selected endpoint is enabled, but not necessarily configured.
 307:../tmk_core/protocol/lufa/LUFA-git/LUFA/Drivers/USB/Core/AVR8/../AVR8/../AVR8/Endpoint_AVR8.h **** 			 *
 308:../tmk_core/protocol/lufa/LUFA-git/LUFA/Drivers/USB/Core/AVR8/../AVR8/../AVR8/Endpoint_AVR8.h **** 			 * \return Boolean \c true if the currently selected endpoint is enabled, \c false otherwise.
 309:../tmk_core/protocol/lufa/LUFA-git/LUFA/Drivers/USB/Core/AVR8/../AVR8/../AVR8/Endpoint_AVR8.h **** 			 */
 310:../tmk_core/protocol/lufa/LUFA-git/LUFA/Drivers/USB/Core/AVR8/../AVR8/../AVR8/Endpoint_AVR8.h **** 			static inline bool Endpoint_IsEnabled(void) ATTR_WARN_UNUSED_RESULT ATTR_ALWAYS_INLINE;
 311:../tmk_core/protocol/lufa/LUFA-git/LUFA/Drivers/USB/Core/AVR8/../AVR8/../AVR8/Endpoint_AVR8.h **** 			static inline bool Endpoint_IsEnabled(void)
 312:../tmk_core/protocol/lufa/LUFA-git/LUFA/Drivers/USB/Core/AVR8/../AVR8/../AVR8/Endpoint_AVR8.h **** 			{
 313:../tmk_core/protocol/lufa/LUFA-git/LUFA/Drivers/USB/Core/AVR8/../AVR8/../AVR8/Endpoint_AVR8.h **** 				return ((UECONX & (1 << EPEN)) ? true : false);
 314:../tmk_core/protocol/lufa/LUFA-git/LUFA/Drivers/USB/Core/AVR8/../AVR8/../AVR8/Endpoint_AVR8.h **** 			}
 315:../tmk_core/protocol/lufa/LUFA-git/LUFA/Drivers/USB/Core/AVR8/../AVR8/../AVR8/Endpoint_AVR8.h **** 
 316:../tmk_core/protocol/lufa/LUFA-git/LUFA/Drivers/USB/Core/AVR8/../AVR8/../AVR8/Endpoint_AVR8.h **** 			/** Retrieves the number of busy banks in the currently selected endpoint, which have been queue
 317:../tmk_core/protocol/lufa/LUFA-git/LUFA/Drivers/USB/Core/AVR8/../AVR8/../AVR8/Endpoint_AVR8.h **** 			 *  transmission via the \ref Endpoint_ClearIN() command, or are awaiting acknowledgment via the
 318:../tmk_core/protocol/lufa/LUFA-git/LUFA/Drivers/USB/Core/AVR8/../AVR8/../AVR8/Endpoint_AVR8.h **** 			 *  \ref Endpoint_ClearOUT() command.
 319:../tmk_core/protocol/lufa/LUFA-git/LUFA/Drivers/USB/Core/AVR8/../AVR8/../AVR8/Endpoint_AVR8.h **** 			 *
 320:../tmk_core/protocol/lufa/LUFA-git/LUFA/Drivers/USB/Core/AVR8/../AVR8/../AVR8/Endpoint_AVR8.h **** 			 *  \ingroup Group_EndpointPacketManagement_AVR8
 321:../tmk_core/protocol/lufa/LUFA-git/LUFA/Drivers/USB/Core/AVR8/../AVR8/../AVR8/Endpoint_AVR8.h **** 			 *
 322:../tmk_core/protocol/lufa/LUFA-git/LUFA/Drivers/USB/Core/AVR8/../AVR8/../AVR8/Endpoint_AVR8.h **** 			 *  \return Total number of busy banks in the selected endpoint.
 323:../tmk_core/protocol/lufa/LUFA-git/LUFA/Drivers/USB/Core/AVR8/../AVR8/../AVR8/Endpoint_AVR8.h **** 			 */
 324:../tmk_core/protocol/lufa/LUFA-git/LUFA/Drivers/USB/Core/AVR8/../AVR8/../AVR8/Endpoint_AVR8.h **** 			static inline uint8_t Endpoint_GetBusyBanks(void) ATTR_ALWAYS_INLINE ATTR_WARN_UNUSED_RESULT;
 325:../tmk_core/protocol/lufa/LUFA-git/LUFA/Drivers/USB/Core/AVR8/../AVR8/../AVR8/Endpoint_AVR8.h **** 			static inline uint8_t Endpoint_GetBusyBanks(void)
 326:../tmk_core/protocol/lufa/LUFA-git/LUFA/Drivers/USB/Core/AVR8/../AVR8/../AVR8/Endpoint_AVR8.h **** 			{
 327:../tmk_core/protocol/lufa/LUFA-git/LUFA/Drivers/USB/Core/AVR8/../AVR8/../AVR8/Endpoint_AVR8.h **** 				return (UESTA0X & (0x03 << NBUSYBK0));
 328:../tmk_core/protocol/lufa/LUFA-git/LUFA/Drivers/USB/Core/AVR8/../AVR8/../AVR8/Endpoint_AVR8.h **** 			}
 329:../tmk_core/protocol/lufa/LUFA-git/LUFA/Drivers/USB/Core/AVR8/../AVR8/../AVR8/Endpoint_AVR8.h **** 
 330:../tmk_core/protocol/lufa/LUFA-git/LUFA/Drivers/USB/Core/AVR8/../AVR8/../AVR8/Endpoint_AVR8.h **** 			/** Aborts all pending IN transactions on the currently selected endpoint, once the bank
 331:../tmk_core/protocol/lufa/LUFA-git/LUFA/Drivers/USB/Core/AVR8/../AVR8/../AVR8/Endpoint_AVR8.h **** 			 *  has been queued for transmission to the host via \ref Endpoint_ClearIN(). This function
 332:../tmk_core/protocol/lufa/LUFA-git/LUFA/Drivers/USB/Core/AVR8/../AVR8/../AVR8/Endpoint_AVR8.h **** 			 *  will terminate all queued transactions, resetting the endpoint banks ready for a new
 333:../tmk_core/protocol/lufa/LUFA-git/LUFA/Drivers/USB/Core/AVR8/../AVR8/../AVR8/Endpoint_AVR8.h **** 			 *  packet.
 334:../tmk_core/protocol/lufa/LUFA-git/LUFA/Drivers/USB/Core/AVR8/../AVR8/../AVR8/Endpoint_AVR8.h **** 			 *
 335:../tmk_core/protocol/lufa/LUFA-git/LUFA/Drivers/USB/Core/AVR8/../AVR8/../AVR8/Endpoint_AVR8.h **** 			 *  \ingroup Group_EndpointPacketManagement_AVR8
 336:../tmk_core/protocol/lufa/LUFA-git/LUFA/Drivers/USB/Core/AVR8/../AVR8/../AVR8/Endpoint_AVR8.h **** 			 */
 337:../tmk_core/protocol/lufa/LUFA-git/LUFA/Drivers/USB/Core/AVR8/../AVR8/../AVR8/Endpoint_AVR8.h **** 			static inline void Endpoint_AbortPendingIN(void)
 338:../tmk_core/protocol/lufa/LUFA-git/LUFA/Drivers/USB/Core/AVR8/../AVR8/../AVR8/Endpoint_AVR8.h **** 			{
 339:../tmk_core/protocol/lufa/LUFA-git/LUFA/Drivers/USB/Core/AVR8/../AVR8/../AVR8/Endpoint_AVR8.h **** 				while (Endpoint_GetBusyBanks() != 0)
 340:../tmk_core/protocol/lufa/LUFA-git/LUFA/Drivers/USB/Core/AVR8/../AVR8/../AVR8/Endpoint_AVR8.h **** 				{
 341:../tmk_core/protocol/lufa/LUFA-git/LUFA/Drivers/USB/Core/AVR8/../AVR8/../AVR8/Endpoint_AVR8.h **** 					UEINTX |= (1 << RXOUTI);
 342:../tmk_core/protocol/lufa/LUFA-git/LUFA/Drivers/USB/Core/AVR8/../AVR8/../AVR8/Endpoint_AVR8.h **** 					while (UEINTX & (1 << RXOUTI));
 343:../tmk_core/protocol/lufa/LUFA-git/LUFA/Drivers/USB/Core/AVR8/../AVR8/../AVR8/Endpoint_AVR8.h **** 				}
 344:../tmk_core/protocol/lufa/LUFA-git/LUFA/Drivers/USB/Core/AVR8/../AVR8/../AVR8/Endpoint_AVR8.h **** 			}
 345:../tmk_core/protocol/lufa/LUFA-git/LUFA/Drivers/USB/Core/AVR8/../AVR8/../AVR8/Endpoint_AVR8.h **** 
 346:../tmk_core/protocol/lufa/LUFA-git/LUFA/Drivers/USB/Core/AVR8/../AVR8/../AVR8/Endpoint_AVR8.h **** 			/** Determines if the currently selected endpoint may be read from (if data is waiting in the en
 347:../tmk_core/protocol/lufa/LUFA-git/LUFA/Drivers/USB/Core/AVR8/../AVR8/../AVR8/Endpoint_AVR8.h **** 			 *  bank and the endpoint is an OUT direction, or if the bank is not yet full if the endpoint is
 348:../tmk_core/protocol/lufa/LUFA-git/LUFA/Drivers/USB/Core/AVR8/../AVR8/../AVR8/Endpoint_AVR8.h **** 			 *  direction). This function will return false if an error has occurred in the endpoint, if the
 349:../tmk_core/protocol/lufa/LUFA-git/LUFA/Drivers/USB/Core/AVR8/../AVR8/../AVR8/Endpoint_AVR8.h **** 			 *  is an OUT direction and no packet (or an empty packet) has been received, or if the endpoint
 350:../tmk_core/protocol/lufa/LUFA-git/LUFA/Drivers/USB/Core/AVR8/../AVR8/../AVR8/Endpoint_AVR8.h **** 			 *  direction and the endpoint bank is full.
 351:../tmk_core/protocol/lufa/LUFA-git/LUFA/Drivers/USB/Core/AVR8/../AVR8/../AVR8/Endpoint_AVR8.h **** 			 *
 352:../tmk_core/protocol/lufa/LUFA-git/LUFA/Drivers/USB/Core/AVR8/../AVR8/../AVR8/Endpoint_AVR8.h **** 			 *  \ingroup Group_EndpointPacketManagement_AVR8
 353:../tmk_core/protocol/lufa/LUFA-git/LUFA/Drivers/USB/Core/AVR8/../AVR8/../AVR8/Endpoint_AVR8.h **** 			 *
 354:../tmk_core/protocol/lufa/LUFA-git/LUFA/Drivers/USB/Core/AVR8/../AVR8/../AVR8/Endpoint_AVR8.h **** 			 *  \return Boolean \c true if the currently selected endpoint may be read from or written to, d
 355:../tmk_core/protocol/lufa/LUFA-git/LUFA/Drivers/USB/Core/AVR8/../AVR8/../AVR8/Endpoint_AVR8.h **** 			 *          on its direction.
 356:../tmk_core/protocol/lufa/LUFA-git/LUFA/Drivers/USB/Core/AVR8/../AVR8/../AVR8/Endpoint_AVR8.h **** 			 */
 357:../tmk_core/protocol/lufa/LUFA-git/LUFA/Drivers/USB/Core/AVR8/../AVR8/../AVR8/Endpoint_AVR8.h **** 			static inline bool Endpoint_IsReadWriteAllowed(void) ATTR_WARN_UNUSED_RESULT ATTR_ALWAYS_INLINE;
 358:../tmk_core/protocol/lufa/LUFA-git/LUFA/Drivers/USB/Core/AVR8/../AVR8/../AVR8/Endpoint_AVR8.h **** 			static inline bool Endpoint_IsReadWriteAllowed(void)
 359:../tmk_core/protocol/lufa/LUFA-git/LUFA/Drivers/USB/Core/AVR8/../AVR8/../AVR8/Endpoint_AVR8.h **** 			{
 360:../tmk_core/protocol/lufa/LUFA-git/LUFA/Drivers/USB/Core/AVR8/../AVR8/../AVR8/Endpoint_AVR8.h **** 				return ((UEINTX & (1 << RWAL)) ? true : false);
  80               		.loc 2 360 0
  81 0030 8091 E800 		lds r24,232
  82               	.LBE269:
  83               	.LBE268:
  55:../tmk_core/protocol/lufa/LUFA-git/LUFA/Drivers/USB/Core/AVR8/EndpointStream_AVR8.c **** 	{
  56:../tmk_core/protocol/lufa/LUFA-git/LUFA/Drivers/USB/Core/AVR8/EndpointStream_AVR8.c **** 		if (!(Endpoint_IsReadWriteAllowed()))
  84               		.loc 1 56 0
  85 0034 85FD      		sbrc r24,5
  86 0036 00C0      		rjmp .L5
  87               	.LBB270:
  88               	.LBB271:
 361:../tmk_core/protocol/lufa/LUFA-git/LUFA/Drivers/USB/Core/AVR8/../AVR8/../AVR8/Endpoint_AVR8.h **** 			}
 362:../tmk_core/protocol/lufa/LUFA-git/LUFA/Drivers/USB/Core/AVR8/../AVR8/../AVR8/Endpoint_AVR8.h **** 
 363:../tmk_core/protocol/lufa/LUFA-git/LUFA/Drivers/USB/Core/AVR8/../AVR8/../AVR8/Endpoint_AVR8.h **** 			/** Determines if the currently selected endpoint is configured.
 364:../tmk_core/protocol/lufa/LUFA-git/LUFA/Drivers/USB/Core/AVR8/../AVR8/../AVR8/Endpoint_AVR8.h **** 			 *
 365:../tmk_core/protocol/lufa/LUFA-git/LUFA/Drivers/USB/Core/AVR8/../AVR8/../AVR8/Endpoint_AVR8.h **** 			 *  \return Boolean \c true if the currently selected endpoint has been configured, \c false oth
 366:../tmk_core/protocol/lufa/LUFA-git/LUFA/Drivers/USB/Core/AVR8/../AVR8/../AVR8/Endpoint_AVR8.h **** 			 */
 367:../tmk_core/protocol/lufa/LUFA-git/LUFA/Drivers/USB/Core/AVR8/../AVR8/../AVR8/Endpoint_AVR8.h **** 			static inline bool Endpoint_IsConfigured(void) ATTR_WARN_UNUSED_RESULT ATTR_ALWAYS_INLINE;
 368:../tmk_core/protocol/lufa/LUFA-git/LUFA/Drivers/USB/Core/AVR8/../AVR8/../AVR8/Endpoint_AVR8.h **** 			static inline bool Endpoint_IsConfigured(void)
 369:../tmk_core/protocol/lufa/LUFA-git/LUFA/Drivers/USB/Core/AVR8/../AVR8/../AVR8/Endpoint_AVR8.h **** 			{
 370:../tmk_core/protocol/lufa/LUFA-git/LUFA/Drivers/USB/Core/AVR8/../AVR8/../AVR8/Endpoint_AVR8.h **** 				return ((UESTA0X & (1 << CFGOK)) ? true : false);
 371:../tmk_core/protocol/lufa/LUFA-git/LUFA/Drivers/USB/Core/AVR8/../AVR8/../AVR8/Endpoint_AVR8.h **** 			}
 372:../tmk_core/protocol/lufa/LUFA-git/LUFA/Drivers/USB/Core/AVR8/../AVR8/../AVR8/Endpoint_AVR8.h **** 
 373:../tmk_core/protocol/lufa/LUFA-git/LUFA/Drivers/USB/Core/AVR8/../AVR8/../AVR8/Endpoint_AVR8.h **** 			/** Returns a mask indicating which INTERRUPT type endpoints have interrupted - i.e. their
 374:../tmk_core/protocol/lufa/LUFA-git/LUFA/Drivers/USB/Core/AVR8/../AVR8/../AVR8/Endpoint_AVR8.h **** 			 *  interrupt duration has elapsed. Which endpoints have interrupted can be determined by
 375:../tmk_core/protocol/lufa/LUFA-git/LUFA/Drivers/USB/Core/AVR8/../AVR8/../AVR8/Endpoint_AVR8.h **** 			 *  masking the return value against <tt>(1 << <i>{Endpoint Number}</i>)</tt>.
 376:../tmk_core/protocol/lufa/LUFA-git/LUFA/Drivers/USB/Core/AVR8/../AVR8/../AVR8/Endpoint_AVR8.h **** 			 *
 377:../tmk_core/protocol/lufa/LUFA-git/LUFA/Drivers/USB/Core/AVR8/../AVR8/../AVR8/Endpoint_AVR8.h **** 			 *  \return Mask whose bits indicate which endpoints have interrupted.
 378:../tmk_core/protocol/lufa/LUFA-git/LUFA/Drivers/USB/Core/AVR8/../AVR8/../AVR8/Endpoint_AVR8.h **** 			 */
 379:../tmk_core/protocol/lufa/LUFA-git/LUFA/Drivers/USB/Core/AVR8/../AVR8/../AVR8/Endpoint_AVR8.h **** 			static inline uint8_t Endpoint_GetEndpointInterrupts(void) ATTR_WARN_UNUSED_RESULT ATTR_ALWAYS_I
 380:../tmk_core/protocol/lufa/LUFA-git/LUFA/Drivers/USB/Core/AVR8/../AVR8/../AVR8/Endpoint_AVR8.h **** 			static inline uint8_t Endpoint_GetEndpointInterrupts(void)
 381:../tmk_core/protocol/lufa/LUFA-git/LUFA/Drivers/USB/Core/AVR8/../AVR8/../AVR8/Endpoint_AVR8.h **** 			{
 382:../tmk_core/protocol/lufa/LUFA-git/LUFA/Drivers/USB/Core/AVR8/../AVR8/../AVR8/Endpoint_AVR8.h **** 				return UEINT;
 383:../tmk_core/protocol/lufa/LUFA-git/LUFA/Drivers/USB/Core/AVR8/../AVR8/../AVR8/Endpoint_AVR8.h **** 			}
 384:../tmk_core/protocol/lufa/LUFA-git/LUFA/Drivers/USB/Core/AVR8/../AVR8/../AVR8/Endpoint_AVR8.h **** 
 385:../tmk_core/protocol/lufa/LUFA-git/LUFA/Drivers/USB/Core/AVR8/../AVR8/../AVR8/Endpoint_AVR8.h **** 			/** Determines if the specified endpoint number has interrupted (valid only for INTERRUPT type
 386:../tmk_core/protocol/lufa/LUFA-git/LUFA/Drivers/USB/Core/AVR8/../AVR8/../AVR8/Endpoint_AVR8.h **** 			 *  endpoints).
 387:../tmk_core/protocol/lufa/LUFA-git/LUFA/Drivers/USB/Core/AVR8/../AVR8/../AVR8/Endpoint_AVR8.h **** 			 *
 388:../tmk_core/protocol/lufa/LUFA-git/LUFA/Drivers/USB/Core/AVR8/../AVR8/../AVR8/Endpoint_AVR8.h **** 			 *  \param[in] Address  Address of the endpoint whose interrupt flag should be tested.
 389:../tmk_core/protocol/lufa/LUFA-git/LUFA/Drivers/USB/Core/AVR8/../AVR8/../AVR8/Endpoint_AVR8.h **** 			 *
 390:../tmk_core/protocol/lufa/LUFA-git/LUFA/Drivers/USB/Core/AVR8/../AVR8/../AVR8/Endpoint_AVR8.h **** 			 *  \return Boolean \c true if the specified endpoint has interrupted, \c false otherwise.
 391:../tmk_core/protocol/lufa/LUFA-git/LUFA/Drivers/USB/Core/AVR8/../AVR8/../AVR8/Endpoint_AVR8.h **** 			 */
 392:../tmk_core/protocol/lufa/LUFA-git/LUFA/Drivers/USB/Core/AVR8/../AVR8/../AVR8/Endpoint_AVR8.h **** 			static inline bool Endpoint_HasEndpointInterrupted(const uint8_t Address) ATTR_WARN_UNUSED_RESUL
 393:../tmk_core/protocol/lufa/LUFA-git/LUFA/Drivers/USB/Core/AVR8/../AVR8/../AVR8/Endpoint_AVR8.h **** 			static inline bool Endpoint_HasEndpointInterrupted(const uint8_t Address)
 394:../tmk_core/protocol/lufa/LUFA-git/LUFA/Drivers/USB/Core/AVR8/../AVR8/../AVR8/Endpoint_AVR8.h **** 			{
 395:../tmk_core/protocol/lufa/LUFA-git/LUFA/Drivers/USB/Core/AVR8/../AVR8/../AVR8/Endpoint_AVR8.h **** 				return ((Endpoint_GetEndpointInterrupts() & (1 << (Address & ENDPOINT_EPNUM_MASK))) ? true : fa
 396:../tmk_core/protocol/lufa/LUFA-git/LUFA/Drivers/USB/Core/AVR8/../AVR8/../AVR8/Endpoint_AVR8.h **** 			}
 397:../tmk_core/protocol/lufa/LUFA-git/LUFA/Drivers/USB/Core/AVR8/../AVR8/../AVR8/Endpoint_AVR8.h **** 
 398:../tmk_core/protocol/lufa/LUFA-git/LUFA/Drivers/USB/Core/AVR8/../AVR8/../AVR8/Endpoint_AVR8.h **** 			/** Determines if the selected IN endpoint is ready for a new packet to be sent to the host.
 399:../tmk_core/protocol/lufa/LUFA-git/LUFA/Drivers/USB/Core/AVR8/../AVR8/../AVR8/Endpoint_AVR8.h **** 			 *
 400:../tmk_core/protocol/lufa/LUFA-git/LUFA/Drivers/USB/Core/AVR8/../AVR8/../AVR8/Endpoint_AVR8.h **** 			 *  \ingroup Group_EndpointPacketManagement_AVR8
 401:../tmk_core/protocol/lufa/LUFA-git/LUFA/Drivers/USB/Core/AVR8/../AVR8/../AVR8/Endpoint_AVR8.h **** 			 *
 402:../tmk_core/protocol/lufa/LUFA-git/LUFA/Drivers/USB/Core/AVR8/../AVR8/../AVR8/Endpoint_AVR8.h **** 			 *  \return Boolean \c true if the current endpoint is ready for an IN packet, \c false otherwis
 403:../tmk_core/protocol/lufa/LUFA-git/LUFA/Drivers/USB/Core/AVR8/../AVR8/../AVR8/Endpoint_AVR8.h **** 			 */
 404:../tmk_core/protocol/lufa/LUFA-git/LUFA/Drivers/USB/Core/AVR8/../AVR8/../AVR8/Endpoint_AVR8.h **** 			static inline bool Endpoint_IsINReady(void) ATTR_WARN_UNUSED_RESULT ATTR_ALWAYS_INLINE;
 405:../tmk_core/protocol/lufa/LUFA-git/LUFA/Drivers/USB/Core/AVR8/../AVR8/../AVR8/Endpoint_AVR8.h **** 			static inline bool Endpoint_IsINReady(void)
 406:../tmk_core/protocol/lufa/LUFA-git/LUFA/Drivers/USB/Core/AVR8/../AVR8/../AVR8/Endpoint_AVR8.h **** 			{
 407:../tmk_core/protocol/lufa/LUFA-git/LUFA/Drivers/USB/Core/AVR8/../AVR8/../AVR8/Endpoint_AVR8.h **** 				return ((UEINTX & (1 << TXINI)) ? true : false);
 408:../tmk_core/protocol/lufa/LUFA-git/LUFA/Drivers/USB/Core/AVR8/../AVR8/../AVR8/Endpoint_AVR8.h **** 			}
 409:../tmk_core/protocol/lufa/LUFA-git/LUFA/Drivers/USB/Core/AVR8/../AVR8/../AVR8/Endpoint_AVR8.h **** 
 410:../tmk_core/protocol/lufa/LUFA-git/LUFA/Drivers/USB/Core/AVR8/../AVR8/../AVR8/Endpoint_AVR8.h **** 			/** Determines if the selected OUT endpoint has received new packet from the host.
 411:../tmk_core/protocol/lufa/LUFA-git/LUFA/Drivers/USB/Core/AVR8/../AVR8/../AVR8/Endpoint_AVR8.h **** 			 *
 412:../tmk_core/protocol/lufa/LUFA-git/LUFA/Drivers/USB/Core/AVR8/../AVR8/../AVR8/Endpoint_AVR8.h **** 			 *  \ingroup Group_EndpointPacketManagement_AVR8
 413:../tmk_core/protocol/lufa/LUFA-git/LUFA/Drivers/USB/Core/AVR8/../AVR8/../AVR8/Endpoint_AVR8.h **** 			 *
 414:../tmk_core/protocol/lufa/LUFA-git/LUFA/Drivers/USB/Core/AVR8/../AVR8/../AVR8/Endpoint_AVR8.h **** 			 *  \return Boolean \c true if current endpoint is has received an OUT packet, \c false otherwis
 415:../tmk_core/protocol/lufa/LUFA-git/LUFA/Drivers/USB/Core/AVR8/../AVR8/../AVR8/Endpoint_AVR8.h **** 			 */
 416:../tmk_core/protocol/lufa/LUFA-git/LUFA/Drivers/USB/Core/AVR8/../AVR8/../AVR8/Endpoint_AVR8.h **** 			static inline bool Endpoint_IsOUTReceived(void) ATTR_WARN_UNUSED_RESULT ATTR_ALWAYS_INLINE;
 417:../tmk_core/protocol/lufa/LUFA-git/LUFA/Drivers/USB/Core/AVR8/../AVR8/../AVR8/Endpoint_AVR8.h **** 			static inline bool Endpoint_IsOUTReceived(void)
 418:../tmk_core/protocol/lufa/LUFA-git/LUFA/Drivers/USB/Core/AVR8/../AVR8/../AVR8/Endpoint_AVR8.h **** 			{
 419:../tmk_core/protocol/lufa/LUFA-git/LUFA/Drivers/USB/Core/AVR8/../AVR8/../AVR8/Endpoint_AVR8.h **** 				return ((UEINTX & (1 << RXOUTI)) ? true : false);
 420:../tmk_core/protocol/lufa/LUFA-git/LUFA/Drivers/USB/Core/AVR8/../AVR8/../AVR8/Endpoint_AVR8.h **** 			}
 421:../tmk_core/protocol/lufa/LUFA-git/LUFA/Drivers/USB/Core/AVR8/../AVR8/../AVR8/Endpoint_AVR8.h **** 
 422:../tmk_core/protocol/lufa/LUFA-git/LUFA/Drivers/USB/Core/AVR8/../AVR8/../AVR8/Endpoint_AVR8.h **** 			/** Determines if the current CONTROL type endpoint has received a SETUP packet.
 423:../tmk_core/protocol/lufa/LUFA-git/LUFA/Drivers/USB/Core/AVR8/../AVR8/../AVR8/Endpoint_AVR8.h **** 			 *
 424:../tmk_core/protocol/lufa/LUFA-git/LUFA/Drivers/USB/Core/AVR8/../AVR8/../AVR8/Endpoint_AVR8.h **** 			 *  \ingroup Group_EndpointPacketManagement_AVR8
 425:../tmk_core/protocol/lufa/LUFA-git/LUFA/Drivers/USB/Core/AVR8/../AVR8/../AVR8/Endpoint_AVR8.h **** 			 *
 426:../tmk_core/protocol/lufa/LUFA-git/LUFA/Drivers/USB/Core/AVR8/../AVR8/../AVR8/Endpoint_AVR8.h **** 			 *  \return Boolean \c true if the selected endpoint has received a SETUP packet, \c false other
 427:../tmk_core/protocol/lufa/LUFA-git/LUFA/Drivers/USB/Core/AVR8/../AVR8/../AVR8/Endpoint_AVR8.h **** 			 */
 428:../tmk_core/protocol/lufa/LUFA-git/LUFA/Drivers/USB/Core/AVR8/../AVR8/../AVR8/Endpoint_AVR8.h **** 			static inline bool Endpoint_IsSETUPReceived(void) ATTR_WARN_UNUSED_RESULT ATTR_ALWAYS_INLINE;
 429:../tmk_core/protocol/lufa/LUFA-git/LUFA/Drivers/USB/Core/AVR8/../AVR8/../AVR8/Endpoint_AVR8.h **** 			static inline bool Endpoint_IsSETUPReceived(void)
 430:../tmk_core/protocol/lufa/LUFA-git/LUFA/Drivers/USB/Core/AVR8/../AVR8/../AVR8/Endpoint_AVR8.h **** 			{
 431:../tmk_core/protocol/lufa/LUFA-git/LUFA/Drivers/USB/Core/AVR8/../AVR8/../AVR8/Endpoint_AVR8.h **** 				return ((UEINTX & (1 << RXSTPI)) ? true : false);
 432:../tmk_core/protocol/lufa/LUFA-git/LUFA/Drivers/USB/Core/AVR8/../AVR8/../AVR8/Endpoint_AVR8.h **** 			}
 433:../tmk_core/protocol/lufa/LUFA-git/LUFA/Drivers/USB/Core/AVR8/../AVR8/../AVR8/Endpoint_AVR8.h **** 
 434:../tmk_core/protocol/lufa/LUFA-git/LUFA/Drivers/USB/Core/AVR8/../AVR8/../AVR8/Endpoint_AVR8.h **** 			/** Clears a received SETUP packet on the currently selected CONTROL type endpoint, freeing up t
 435:../tmk_core/protocol/lufa/LUFA-git/LUFA/Drivers/USB/Core/AVR8/../AVR8/../AVR8/Endpoint_AVR8.h **** 			 *  endpoint for the next packet.
 436:../tmk_core/protocol/lufa/LUFA-git/LUFA/Drivers/USB/Core/AVR8/../AVR8/../AVR8/Endpoint_AVR8.h **** 			 *
 437:../tmk_core/protocol/lufa/LUFA-git/LUFA/Drivers/USB/Core/AVR8/../AVR8/../AVR8/Endpoint_AVR8.h **** 			 *  \ingroup Group_EndpointPacketManagement_AVR8
 438:../tmk_core/protocol/lufa/LUFA-git/LUFA/Drivers/USB/Core/AVR8/../AVR8/../AVR8/Endpoint_AVR8.h **** 			 *
 439:../tmk_core/protocol/lufa/LUFA-git/LUFA/Drivers/USB/Core/AVR8/../AVR8/../AVR8/Endpoint_AVR8.h **** 			 *  \note This is not applicable for non CONTROL type endpoints.
 440:../tmk_core/protocol/lufa/LUFA-git/LUFA/Drivers/USB/Core/AVR8/../AVR8/../AVR8/Endpoint_AVR8.h **** 			 */
 441:../tmk_core/protocol/lufa/LUFA-git/LUFA/Drivers/USB/Core/AVR8/../AVR8/../AVR8/Endpoint_AVR8.h **** 			static inline void Endpoint_ClearSETUP(void) ATTR_ALWAYS_INLINE;
 442:../tmk_core/protocol/lufa/LUFA-git/LUFA/Drivers/USB/Core/AVR8/../AVR8/../AVR8/Endpoint_AVR8.h **** 			static inline void Endpoint_ClearSETUP(void)
 443:../tmk_core/protocol/lufa/LUFA-git/LUFA/Drivers/USB/Core/AVR8/../AVR8/../AVR8/Endpoint_AVR8.h **** 			{
 444:../tmk_core/protocol/lufa/LUFA-git/LUFA/Drivers/USB/Core/AVR8/../AVR8/../AVR8/Endpoint_AVR8.h **** 				UEINTX &= ~(1 << RXSTPI);
 445:../tmk_core/protocol/lufa/LUFA-git/LUFA/Drivers/USB/Core/AVR8/../AVR8/../AVR8/Endpoint_AVR8.h **** 			}
 446:../tmk_core/protocol/lufa/LUFA-git/LUFA/Drivers/USB/Core/AVR8/../AVR8/../AVR8/Endpoint_AVR8.h **** 
 447:../tmk_core/protocol/lufa/LUFA-git/LUFA/Drivers/USB/Core/AVR8/../AVR8/../AVR8/Endpoint_AVR8.h **** 			/** Sends an IN packet to the host on the currently selected endpoint, freeing up the endpoint f
 448:../tmk_core/protocol/lufa/LUFA-git/LUFA/Drivers/USB/Core/AVR8/../AVR8/../AVR8/Endpoint_AVR8.h **** 			 *  next packet and switching to the alternative endpoint bank if double banked.
 449:../tmk_core/protocol/lufa/LUFA-git/LUFA/Drivers/USB/Core/AVR8/../AVR8/../AVR8/Endpoint_AVR8.h **** 			 *
 450:../tmk_core/protocol/lufa/LUFA-git/LUFA/Drivers/USB/Core/AVR8/../AVR8/../AVR8/Endpoint_AVR8.h **** 			 *  \ingroup Group_EndpointPacketManagement_AVR8
 451:../tmk_core/protocol/lufa/LUFA-git/LUFA/Drivers/USB/Core/AVR8/../AVR8/../AVR8/Endpoint_AVR8.h **** 			 */
 452:../tmk_core/protocol/lufa/LUFA-git/LUFA/Drivers/USB/Core/AVR8/../AVR8/../AVR8/Endpoint_AVR8.h **** 			static inline void Endpoint_ClearIN(void) ATTR_ALWAYS_INLINE;
 453:../tmk_core/protocol/lufa/LUFA-git/LUFA/Drivers/USB/Core/AVR8/../AVR8/../AVR8/Endpoint_AVR8.h **** 			static inline void Endpoint_ClearIN(void)
 454:../tmk_core/protocol/lufa/LUFA-git/LUFA/Drivers/USB/Core/AVR8/../AVR8/../AVR8/Endpoint_AVR8.h **** 			{
 455:../tmk_core/protocol/lufa/LUFA-git/LUFA/Drivers/USB/Core/AVR8/../AVR8/../AVR8/Endpoint_AVR8.h **** 				#if !defined(CONTROL_ONLY_DEVICE)
 456:../tmk_core/protocol/lufa/LUFA-git/LUFA/Drivers/USB/Core/AVR8/../AVR8/../AVR8/Endpoint_AVR8.h **** 					UEINTX &= ~((1 << TXINI) | (1 << FIFOCON));
 457:../tmk_core/protocol/lufa/LUFA-git/LUFA/Drivers/USB/Core/AVR8/../AVR8/../AVR8/Endpoint_AVR8.h **** 				#else
 458:../tmk_core/protocol/lufa/LUFA-git/LUFA/Drivers/USB/Core/AVR8/../AVR8/../AVR8/Endpoint_AVR8.h **** 					UEINTX &= ~(1 << TXINI);
 459:../tmk_core/protocol/lufa/LUFA-git/LUFA/Drivers/USB/Core/AVR8/../AVR8/../AVR8/Endpoint_AVR8.h **** 				#endif
 460:../tmk_core/protocol/lufa/LUFA-git/LUFA/Drivers/USB/Core/AVR8/../AVR8/../AVR8/Endpoint_AVR8.h **** 			}
 461:../tmk_core/protocol/lufa/LUFA-git/LUFA/Drivers/USB/Core/AVR8/../AVR8/../AVR8/Endpoint_AVR8.h **** 
 462:../tmk_core/protocol/lufa/LUFA-git/LUFA/Drivers/USB/Core/AVR8/../AVR8/../AVR8/Endpoint_AVR8.h **** 			/** Acknowledges an OUT packet to the host on the currently selected endpoint, freeing up the en
 463:../tmk_core/protocol/lufa/LUFA-git/LUFA/Drivers/USB/Core/AVR8/../AVR8/../AVR8/Endpoint_AVR8.h **** 			 *  for the next packet and switching to the alternative endpoint bank if double banked.
 464:../tmk_core/protocol/lufa/LUFA-git/LUFA/Drivers/USB/Core/AVR8/../AVR8/../AVR8/Endpoint_AVR8.h **** 			 *
 465:../tmk_core/protocol/lufa/LUFA-git/LUFA/Drivers/USB/Core/AVR8/../AVR8/../AVR8/Endpoint_AVR8.h **** 			 *  \ingroup Group_EndpointPacketManagement_AVR8
 466:../tmk_core/protocol/lufa/LUFA-git/LUFA/Drivers/USB/Core/AVR8/../AVR8/../AVR8/Endpoint_AVR8.h **** 			 */
 467:../tmk_core/protocol/lufa/LUFA-git/LUFA/Drivers/USB/Core/AVR8/../AVR8/../AVR8/Endpoint_AVR8.h **** 			static inline void Endpoint_ClearOUT(void) ATTR_ALWAYS_INLINE;
 468:../tmk_core/protocol/lufa/LUFA-git/LUFA/Drivers/USB/Core/AVR8/../AVR8/../AVR8/Endpoint_AVR8.h **** 			static inline void Endpoint_ClearOUT(void)
 469:../tmk_core/protocol/lufa/LUFA-git/LUFA/Drivers/USB/Core/AVR8/../AVR8/../AVR8/Endpoint_AVR8.h **** 			{
 470:../tmk_core/protocol/lufa/LUFA-git/LUFA/Drivers/USB/Core/AVR8/../AVR8/../AVR8/Endpoint_AVR8.h **** 				#if !defined(CONTROL_ONLY_DEVICE)
 471:../tmk_core/protocol/lufa/LUFA-git/LUFA/Drivers/USB/Core/AVR8/../AVR8/../AVR8/Endpoint_AVR8.h **** 					UEINTX &= ~((1 << RXOUTI) | (1 << FIFOCON));
  89               		.loc 2 471 0
  90 0038 8091 E800 		lds r24,232
  91 003c 8B77      		andi r24,lo8(123)
  92 003e 8093 E800 		sts 232,r24
  93               	.LBE271:
  94               	.LBE270:
  57:../tmk_core/protocol/lufa/LUFA-git/LUFA/Drivers/USB/Core/AVR8/EndpointStream_AVR8.c **** 		{
  58:../tmk_core/protocol/lufa/LUFA-git/LUFA/Drivers/USB/Core/AVR8/EndpointStream_AVR8.c **** 			Endpoint_ClearOUT();
  59:../tmk_core/protocol/lufa/LUFA-git/LUFA/Drivers/USB/Core/AVR8/EndpointStream_AVR8.c **** 
  60:../tmk_core/protocol/lufa/LUFA-git/LUFA/Drivers/USB/Core/AVR8/EndpointStream_AVR8.c **** 			if (BytesProcessed != NULL)
  95               		.loc 1 60 0
  96 0042 E114      		cp r14,__zero_reg__
  97 0044 F104      		cpc r15,__zero_reg__
  98 0046 01F0      		breq .L6
  61:../tmk_core/protocol/lufa/LUFA-git/LUFA/Drivers/USB/Core/AVR8/EndpointStream_AVR8.c **** 			{
  62:../tmk_core/protocol/lufa/LUFA-git/LUFA/Drivers/USB/Core/AVR8/EndpointStream_AVR8.c **** 				*BytesProcessed += BytesInTransfer;
  99               		.loc 1 62 0
 100 0048 F701      		movw r30,r14
 101 004a 8081      		ld r24,Z
 102 004c 9181      		ldd r25,Z+1
 103 004e 080F      		add r16,r24
 104 0050 191F      		adc r17,r25
 105               	.LVL6:
 106 0052 1183      		std Z+1,r17
 107 0054 0083      		st Z,r16
  63:../tmk_core/protocol/lufa/LUFA-git/LUFA/Drivers/USB/Core/AVR8/EndpointStream_AVR8.c **** 				return ENDPOINT_RWSTREAM_IncompleteTransfer;
 108               		.loc 1 63 0
 109 0056 85E0      		ldi r24,lo8(5)
 110 0058 00C0      		rjmp .L2
 111               	.LVL7:
 112               	.L6:
  64:../tmk_core/protocol/lufa/LUFA-git/LUFA/Drivers/USB/Core/AVR8/EndpointStream_AVR8.c **** 			}
  65:../tmk_core/protocol/lufa/LUFA-git/LUFA/Drivers/USB/Core/AVR8/EndpointStream_AVR8.c **** 
  66:../tmk_core/protocol/lufa/LUFA-git/LUFA/Drivers/USB/Core/AVR8/EndpointStream_AVR8.c **** 			if ((ErrorCode = Endpoint_WaitUntilReady()))
 113               		.loc 1 66 0
 114 005a 0E94 0000 		call Endpoint_WaitUntilReady
 115               	.LVL8:
 116 005e 8823      		tst r24
 117 0060 01F0      		breq .L4
 118 0062 00C0      		rjmp .L2
 119               	.LVL9:
 120               	.L5:
 121               	.LBB272:
 122               	.LBB273:
 472:../tmk_core/protocol/lufa/LUFA-git/LUFA/Drivers/USB/Core/AVR8/../AVR8/../AVR8/Endpoint_AVR8.h **** 				#else
 473:../tmk_core/protocol/lufa/LUFA-git/LUFA/Drivers/USB/Core/AVR8/../AVR8/../AVR8/Endpoint_AVR8.h **** 					UEINTX &= ~(1 << RXOUTI);
 474:../tmk_core/protocol/lufa/LUFA-git/LUFA/Drivers/USB/Core/AVR8/../AVR8/../AVR8/Endpoint_AVR8.h **** 				#endif
 475:../tmk_core/protocol/lufa/LUFA-git/LUFA/Drivers/USB/Core/AVR8/../AVR8/../AVR8/Endpoint_AVR8.h **** 			}
 476:../tmk_core/protocol/lufa/LUFA-git/LUFA/Drivers/USB/Core/AVR8/../AVR8/../AVR8/Endpoint_AVR8.h **** 
 477:../tmk_core/protocol/lufa/LUFA-git/LUFA/Drivers/USB/Core/AVR8/../AVR8/../AVR8/Endpoint_AVR8.h **** 			/** Stalls the current endpoint, indicating to the host that a logical problem occurred with the
 478:../tmk_core/protocol/lufa/LUFA-git/LUFA/Drivers/USB/Core/AVR8/../AVR8/../AVR8/Endpoint_AVR8.h **** 			 *  indicated endpoint and that the current transfer sequence should be aborted. This provides a
 479:../tmk_core/protocol/lufa/LUFA-git/LUFA/Drivers/USB/Core/AVR8/../AVR8/../AVR8/Endpoint_AVR8.h **** 			 *  way for devices to indicate invalid commands to the host so that the current transfer can be
 480:../tmk_core/protocol/lufa/LUFA-git/LUFA/Drivers/USB/Core/AVR8/../AVR8/../AVR8/Endpoint_AVR8.h **** 			 *  aborted and the host can begin its own recovery sequence.
 481:../tmk_core/protocol/lufa/LUFA-git/LUFA/Drivers/USB/Core/AVR8/../AVR8/../AVR8/Endpoint_AVR8.h **** 			 *
 482:../tmk_core/protocol/lufa/LUFA-git/LUFA/Drivers/USB/Core/AVR8/../AVR8/../AVR8/Endpoint_AVR8.h **** 			 *  The currently selected endpoint remains stalled until either the \ref Endpoint_ClearStall() 
 483:../tmk_core/protocol/lufa/LUFA-git/LUFA/Drivers/USB/Core/AVR8/../AVR8/../AVR8/Endpoint_AVR8.h **** 			 *  is called, or the host issues a CLEAR FEATURE request to the device for the currently select
 484:../tmk_core/protocol/lufa/LUFA-git/LUFA/Drivers/USB/Core/AVR8/../AVR8/../AVR8/Endpoint_AVR8.h **** 			 *  endpoint.
 485:../tmk_core/protocol/lufa/LUFA-git/LUFA/Drivers/USB/Core/AVR8/../AVR8/../AVR8/Endpoint_AVR8.h **** 			 *
 486:../tmk_core/protocol/lufa/LUFA-git/LUFA/Drivers/USB/Core/AVR8/../AVR8/../AVR8/Endpoint_AVR8.h **** 			 *  \ingroup Group_EndpointPacketManagement_AVR8
 487:../tmk_core/protocol/lufa/LUFA-git/LUFA/Drivers/USB/Core/AVR8/../AVR8/../AVR8/Endpoint_AVR8.h **** 			 */
 488:../tmk_core/protocol/lufa/LUFA-git/LUFA/Drivers/USB/Core/AVR8/../AVR8/../AVR8/Endpoint_AVR8.h **** 			static inline void Endpoint_StallTransaction(void) ATTR_ALWAYS_INLINE;
 489:../tmk_core/protocol/lufa/LUFA-git/LUFA/Drivers/USB/Core/AVR8/../AVR8/../AVR8/Endpoint_AVR8.h **** 			static inline void Endpoint_StallTransaction(void)
 490:../tmk_core/protocol/lufa/LUFA-git/LUFA/Drivers/USB/Core/AVR8/../AVR8/../AVR8/Endpoint_AVR8.h **** 			{
 491:../tmk_core/protocol/lufa/LUFA-git/LUFA/Drivers/USB/Core/AVR8/../AVR8/../AVR8/Endpoint_AVR8.h **** 				UECONX |= (1 << STALLRQ);
 492:../tmk_core/protocol/lufa/LUFA-git/LUFA/Drivers/USB/Core/AVR8/../AVR8/../AVR8/Endpoint_AVR8.h **** 			}
 493:../tmk_core/protocol/lufa/LUFA-git/LUFA/Drivers/USB/Core/AVR8/../AVR8/../AVR8/Endpoint_AVR8.h **** 
 494:../tmk_core/protocol/lufa/LUFA-git/LUFA/Drivers/USB/Core/AVR8/../AVR8/../AVR8/Endpoint_AVR8.h **** 			/** Clears the STALL condition on the currently selected endpoint.
 495:../tmk_core/protocol/lufa/LUFA-git/LUFA/Drivers/USB/Core/AVR8/../AVR8/../AVR8/Endpoint_AVR8.h **** 			 *
 496:../tmk_core/protocol/lufa/LUFA-git/LUFA/Drivers/USB/Core/AVR8/../AVR8/../AVR8/Endpoint_AVR8.h **** 			 *  \ingroup Group_EndpointPacketManagement_AVR8
 497:../tmk_core/protocol/lufa/LUFA-git/LUFA/Drivers/USB/Core/AVR8/../AVR8/../AVR8/Endpoint_AVR8.h **** 			 */
 498:../tmk_core/protocol/lufa/LUFA-git/LUFA/Drivers/USB/Core/AVR8/../AVR8/../AVR8/Endpoint_AVR8.h **** 			static inline void Endpoint_ClearStall(void) ATTR_ALWAYS_INLINE;
 499:../tmk_core/protocol/lufa/LUFA-git/LUFA/Drivers/USB/Core/AVR8/../AVR8/../AVR8/Endpoint_AVR8.h **** 			static inline void Endpoint_ClearStall(void)
 500:../tmk_core/protocol/lufa/LUFA-git/LUFA/Drivers/USB/Core/AVR8/../AVR8/../AVR8/Endpoint_AVR8.h **** 			{
 501:../tmk_core/protocol/lufa/LUFA-git/LUFA/Drivers/USB/Core/AVR8/../AVR8/../AVR8/Endpoint_AVR8.h **** 				UECONX |= (1 << STALLRQC);
 502:../tmk_core/protocol/lufa/LUFA-git/LUFA/Drivers/USB/Core/AVR8/../AVR8/../AVR8/Endpoint_AVR8.h **** 			}
 503:../tmk_core/protocol/lufa/LUFA-git/LUFA/Drivers/USB/Core/AVR8/../AVR8/../AVR8/Endpoint_AVR8.h **** 
 504:../tmk_core/protocol/lufa/LUFA-git/LUFA/Drivers/USB/Core/AVR8/../AVR8/../AVR8/Endpoint_AVR8.h **** 			/** Determines if the currently selected endpoint is stalled, \c false otherwise.
 505:../tmk_core/protocol/lufa/LUFA-git/LUFA/Drivers/USB/Core/AVR8/../AVR8/../AVR8/Endpoint_AVR8.h **** 			 *
 506:../tmk_core/protocol/lufa/LUFA-git/LUFA/Drivers/USB/Core/AVR8/../AVR8/../AVR8/Endpoint_AVR8.h **** 			 *  \ingroup Group_EndpointPacketManagement_AVR8
 507:../tmk_core/protocol/lufa/LUFA-git/LUFA/Drivers/USB/Core/AVR8/../AVR8/../AVR8/Endpoint_AVR8.h **** 			 *
 508:../tmk_core/protocol/lufa/LUFA-git/LUFA/Drivers/USB/Core/AVR8/../AVR8/../AVR8/Endpoint_AVR8.h **** 			 *  \return Boolean \c true if the currently selected endpoint is stalled, \c false otherwise.
 509:../tmk_core/protocol/lufa/LUFA-git/LUFA/Drivers/USB/Core/AVR8/../AVR8/../AVR8/Endpoint_AVR8.h **** 			 */
 510:../tmk_core/protocol/lufa/LUFA-git/LUFA/Drivers/USB/Core/AVR8/../AVR8/../AVR8/Endpoint_AVR8.h **** 			static inline bool Endpoint_IsStalled(void) ATTR_WARN_UNUSED_RESULT ATTR_ALWAYS_INLINE;
 511:../tmk_core/protocol/lufa/LUFA-git/LUFA/Drivers/USB/Core/AVR8/../AVR8/../AVR8/Endpoint_AVR8.h **** 			static inline bool Endpoint_IsStalled(void)
 512:../tmk_core/protocol/lufa/LUFA-git/LUFA/Drivers/USB/Core/AVR8/../AVR8/../AVR8/Endpoint_AVR8.h **** 			{
 513:../tmk_core/protocol/lufa/LUFA-git/LUFA/Drivers/USB/Core/AVR8/../AVR8/../AVR8/Endpoint_AVR8.h **** 				return ((UECONX & (1 << STALLRQ)) ? true : false);
 514:../tmk_core/protocol/lufa/LUFA-git/LUFA/Drivers/USB/Core/AVR8/../AVR8/../AVR8/Endpoint_AVR8.h **** 			}
 515:../tmk_core/protocol/lufa/LUFA-git/LUFA/Drivers/USB/Core/AVR8/../AVR8/../AVR8/Endpoint_AVR8.h **** 
 516:../tmk_core/protocol/lufa/LUFA-git/LUFA/Drivers/USB/Core/AVR8/../AVR8/../AVR8/Endpoint_AVR8.h **** 			/** Resets the data toggle of the currently selected endpoint. */
 517:../tmk_core/protocol/lufa/LUFA-git/LUFA/Drivers/USB/Core/AVR8/../AVR8/../AVR8/Endpoint_AVR8.h **** 			static inline void Endpoint_ResetDataToggle(void) ATTR_ALWAYS_INLINE;
 518:../tmk_core/protocol/lufa/LUFA-git/LUFA/Drivers/USB/Core/AVR8/../AVR8/../AVR8/Endpoint_AVR8.h **** 			static inline void Endpoint_ResetDataToggle(void)
 519:../tmk_core/protocol/lufa/LUFA-git/LUFA/Drivers/USB/Core/AVR8/../AVR8/../AVR8/Endpoint_AVR8.h **** 			{
 520:../tmk_core/protocol/lufa/LUFA-git/LUFA/Drivers/USB/Core/AVR8/../AVR8/../AVR8/Endpoint_AVR8.h **** 				UECONX |= (1 << RSTDT);
 521:../tmk_core/protocol/lufa/LUFA-git/LUFA/Drivers/USB/Core/AVR8/../AVR8/../AVR8/Endpoint_AVR8.h **** 			}
 522:../tmk_core/protocol/lufa/LUFA-git/LUFA/Drivers/USB/Core/AVR8/../AVR8/../AVR8/Endpoint_AVR8.h **** 
 523:../tmk_core/protocol/lufa/LUFA-git/LUFA/Drivers/USB/Core/AVR8/../AVR8/../AVR8/Endpoint_AVR8.h **** 			/** Sets the direction of the currently selected endpoint.
 524:../tmk_core/protocol/lufa/LUFA-git/LUFA/Drivers/USB/Core/AVR8/../AVR8/../AVR8/Endpoint_AVR8.h **** 			 *
 525:../tmk_core/protocol/lufa/LUFA-git/LUFA/Drivers/USB/Core/AVR8/../AVR8/../AVR8/Endpoint_AVR8.h **** 			 *  \param[in] DirectionMask  New endpoint direction, as a \c ENDPOINT_DIR_* mask.
 526:../tmk_core/protocol/lufa/LUFA-git/LUFA/Drivers/USB/Core/AVR8/../AVR8/../AVR8/Endpoint_AVR8.h **** 			 */
 527:../tmk_core/protocol/lufa/LUFA-git/LUFA/Drivers/USB/Core/AVR8/../AVR8/../AVR8/Endpoint_AVR8.h **** 			static inline void Endpoint_SetEndpointDirection(const uint8_t DirectionMask) ATTR_ALWAYS_INLINE
 528:../tmk_core/protocol/lufa/LUFA-git/LUFA/Drivers/USB/Core/AVR8/../AVR8/../AVR8/Endpoint_AVR8.h **** 			static inline void Endpoint_SetEndpointDirection(const uint8_t DirectionMask)
 529:../tmk_core/protocol/lufa/LUFA-git/LUFA/Drivers/USB/Core/AVR8/../AVR8/../AVR8/Endpoint_AVR8.h **** 			{
 530:../tmk_core/protocol/lufa/LUFA-git/LUFA/Drivers/USB/Core/AVR8/../AVR8/../AVR8/Endpoint_AVR8.h **** 				UECFG0X = ((UECFG0X & ~(1 << EPDIR)) | (DirectionMask ? (1 << EPDIR) : 0));
 531:../tmk_core/protocol/lufa/LUFA-git/LUFA/Drivers/USB/Core/AVR8/../AVR8/../AVR8/Endpoint_AVR8.h **** 			}
 532:../tmk_core/protocol/lufa/LUFA-git/LUFA/Drivers/USB/Core/AVR8/../AVR8/../AVR8/Endpoint_AVR8.h **** 
 533:../tmk_core/protocol/lufa/LUFA-git/LUFA/Drivers/USB/Core/AVR8/../AVR8/../AVR8/Endpoint_AVR8.h **** 			/** Reads one byte from the currently selected endpoint's bank, for OUT direction endpoints.
 534:../tmk_core/protocol/lufa/LUFA-git/LUFA/Drivers/USB/Core/AVR8/../AVR8/../AVR8/Endpoint_AVR8.h **** 			 *
 535:../tmk_core/protocol/lufa/LUFA-git/LUFA/Drivers/USB/Core/AVR8/../AVR8/../AVR8/Endpoint_AVR8.h **** 			 *  \ingroup Group_EndpointPrimitiveRW_AVR8
 536:../tmk_core/protocol/lufa/LUFA-git/LUFA/Drivers/USB/Core/AVR8/../AVR8/../AVR8/Endpoint_AVR8.h **** 			 *
 537:../tmk_core/protocol/lufa/LUFA-git/LUFA/Drivers/USB/Core/AVR8/../AVR8/../AVR8/Endpoint_AVR8.h **** 			 *  \return Next byte in the currently selected endpoint's FIFO buffer.
 538:../tmk_core/protocol/lufa/LUFA-git/LUFA/Drivers/USB/Core/AVR8/../AVR8/../AVR8/Endpoint_AVR8.h **** 			 */
 539:../tmk_core/protocol/lufa/LUFA-git/LUFA/Drivers/USB/Core/AVR8/../AVR8/../AVR8/Endpoint_AVR8.h **** 			static inline uint8_t Endpoint_Read_8(void) ATTR_WARN_UNUSED_RESULT ATTR_ALWAYS_INLINE;
 540:../tmk_core/protocol/lufa/LUFA-git/LUFA/Drivers/USB/Core/AVR8/../AVR8/../AVR8/Endpoint_AVR8.h **** 			static inline uint8_t Endpoint_Read_8(void)
 541:../tmk_core/protocol/lufa/LUFA-git/LUFA/Drivers/USB/Core/AVR8/../AVR8/../AVR8/Endpoint_AVR8.h **** 			{
 542:../tmk_core/protocol/lufa/LUFA-git/LUFA/Drivers/USB/Core/AVR8/../AVR8/../AVR8/Endpoint_AVR8.h **** 				return UEDATX;
 543:../tmk_core/protocol/lufa/LUFA-git/LUFA/Drivers/USB/Core/AVR8/../AVR8/../AVR8/Endpoint_AVR8.h **** 			}
 544:../tmk_core/protocol/lufa/LUFA-git/LUFA/Drivers/USB/Core/AVR8/../AVR8/../AVR8/Endpoint_AVR8.h **** 
 545:../tmk_core/protocol/lufa/LUFA-git/LUFA/Drivers/USB/Core/AVR8/../AVR8/../AVR8/Endpoint_AVR8.h **** 			/** Writes one byte to the currently selected endpoint's bank, for IN direction endpoints.
 546:../tmk_core/protocol/lufa/LUFA-git/LUFA/Drivers/USB/Core/AVR8/../AVR8/../AVR8/Endpoint_AVR8.h **** 			 *
 547:../tmk_core/protocol/lufa/LUFA-git/LUFA/Drivers/USB/Core/AVR8/../AVR8/../AVR8/Endpoint_AVR8.h **** 			 *  \ingroup Group_EndpointPrimitiveRW_AVR8
 548:../tmk_core/protocol/lufa/LUFA-git/LUFA/Drivers/USB/Core/AVR8/../AVR8/../AVR8/Endpoint_AVR8.h **** 			 *
 549:../tmk_core/protocol/lufa/LUFA-git/LUFA/Drivers/USB/Core/AVR8/../AVR8/../AVR8/Endpoint_AVR8.h **** 			 *  \param[in] Data  Data to write into the the currently selected endpoint's FIFO buffer.
 550:../tmk_core/protocol/lufa/LUFA-git/LUFA/Drivers/USB/Core/AVR8/../AVR8/../AVR8/Endpoint_AVR8.h **** 			 */
 551:../tmk_core/protocol/lufa/LUFA-git/LUFA/Drivers/USB/Core/AVR8/../AVR8/../AVR8/Endpoint_AVR8.h **** 			static inline void Endpoint_Write_8(const uint8_t Data) ATTR_ALWAYS_INLINE;
 552:../tmk_core/protocol/lufa/LUFA-git/LUFA/Drivers/USB/Core/AVR8/../AVR8/../AVR8/Endpoint_AVR8.h **** 			static inline void Endpoint_Write_8(const uint8_t Data)
 553:../tmk_core/protocol/lufa/LUFA-git/LUFA/Drivers/USB/Core/AVR8/../AVR8/../AVR8/Endpoint_AVR8.h **** 			{
 554:../tmk_core/protocol/lufa/LUFA-git/LUFA/Drivers/USB/Core/AVR8/../AVR8/../AVR8/Endpoint_AVR8.h **** 				UEDATX = Data;
 555:../tmk_core/protocol/lufa/LUFA-git/LUFA/Drivers/USB/Core/AVR8/../AVR8/../AVR8/Endpoint_AVR8.h **** 			}
 556:../tmk_core/protocol/lufa/LUFA-git/LUFA/Drivers/USB/Core/AVR8/../AVR8/../AVR8/Endpoint_AVR8.h **** 
 557:../tmk_core/protocol/lufa/LUFA-git/LUFA/Drivers/USB/Core/AVR8/../AVR8/../AVR8/Endpoint_AVR8.h **** 			/** Discards one byte from the currently selected endpoint's bank, for OUT direction endpoints.
 558:../tmk_core/protocol/lufa/LUFA-git/LUFA/Drivers/USB/Core/AVR8/../AVR8/../AVR8/Endpoint_AVR8.h **** 			 *
 559:../tmk_core/protocol/lufa/LUFA-git/LUFA/Drivers/USB/Core/AVR8/../AVR8/../AVR8/Endpoint_AVR8.h **** 			 *  \ingroup Group_EndpointPrimitiveRW_AVR8
 560:../tmk_core/protocol/lufa/LUFA-git/LUFA/Drivers/USB/Core/AVR8/../AVR8/../AVR8/Endpoint_AVR8.h **** 			 */
 561:../tmk_core/protocol/lufa/LUFA-git/LUFA/Drivers/USB/Core/AVR8/../AVR8/../AVR8/Endpoint_AVR8.h **** 			static inline void Endpoint_Discard_8(void) ATTR_ALWAYS_INLINE;
 562:../tmk_core/protocol/lufa/LUFA-git/LUFA/Drivers/USB/Core/AVR8/../AVR8/../AVR8/Endpoint_AVR8.h **** 			static inline void Endpoint_Discard_8(void)
 563:../tmk_core/protocol/lufa/LUFA-git/LUFA/Drivers/USB/Core/AVR8/../AVR8/../AVR8/Endpoint_AVR8.h **** 			{
 564:../tmk_core/protocol/lufa/LUFA-git/LUFA/Drivers/USB/Core/AVR8/../AVR8/../AVR8/Endpoint_AVR8.h **** 				uint8_t Dummy;
 565:../tmk_core/protocol/lufa/LUFA-git/LUFA/Drivers/USB/Core/AVR8/../AVR8/../AVR8/Endpoint_AVR8.h **** 
 566:../tmk_core/protocol/lufa/LUFA-git/LUFA/Drivers/USB/Core/AVR8/../AVR8/../AVR8/Endpoint_AVR8.h **** 				Dummy = UEDATX;
 123               		.loc 2 566 0
 124 0064 8091 F100 		lds r24,241
 125               	.LBE273:
 126               	.LBE272:
  67:../tmk_core/protocol/lufa/LUFA-git/LUFA/Drivers/USB/Core/AVR8/EndpointStream_AVR8.c **** 			  return ErrorCode;
  68:../tmk_core/protocol/lufa/LUFA-git/LUFA/Drivers/USB/Core/AVR8/EndpointStream_AVR8.c **** 		}
  69:../tmk_core/protocol/lufa/LUFA-git/LUFA/Drivers/USB/Core/AVR8/EndpointStream_AVR8.c **** 		else
  70:../tmk_core/protocol/lufa/LUFA-git/LUFA/Drivers/USB/Core/AVR8/EndpointStream_AVR8.c **** 		{
  71:../tmk_core/protocol/lufa/LUFA-git/LUFA/Drivers/USB/Core/AVR8/EndpointStream_AVR8.c **** 			Endpoint_Discard_8();
  72:../tmk_core/protocol/lufa/LUFA-git/LUFA/Drivers/USB/Core/AVR8/EndpointStream_AVR8.c **** 
  73:../tmk_core/protocol/lufa/LUFA-git/LUFA/Drivers/USB/Core/AVR8/EndpointStream_AVR8.c **** 			Length--;
 127               		.loc 1 73 0
 128 0068 2197      		sbiw r28,1
 129               	.LVL10:
  74:../tmk_core/protocol/lufa/LUFA-git/LUFA/Drivers/USB/Core/AVR8/EndpointStream_AVR8.c **** 			BytesInTransfer++;
 130               		.loc 1 74 0
 131 006a 0F5F      		subi r16,-1
 132 006c 1F4F      		sbci r17,-1
 133               	.LVL11:
 134 006e 00C0      		rjmp .L4
 135               	.L15:
  75:../tmk_core/protocol/lufa/LUFA-git/LUFA/Drivers/USB/Core/AVR8/EndpointStream_AVR8.c **** 		}
  76:../tmk_core/protocol/lufa/LUFA-git/LUFA/Drivers/USB/Core/AVR8/EndpointStream_AVR8.c **** 	}
  77:../tmk_core/protocol/lufa/LUFA-git/LUFA/Drivers/USB/Core/AVR8/EndpointStream_AVR8.c **** 
  78:../tmk_core/protocol/lufa/LUFA-git/LUFA/Drivers/USB/Core/AVR8/EndpointStream_AVR8.c **** 	return ENDPOINT_RWSTREAM_NoError;
 136               		.loc 1 78 0
 137 0070 80E0      		ldi r24,0
 138               	.LVL12:
 139               	.L2:
 140               	/* epilogue start */
  79:../tmk_core/protocol/lufa/LUFA-git/LUFA/Drivers/USB/Core/AVR8/EndpointStream_AVR8.c **** }
 141               		.loc 1 79 0
 142 0072 DF91      		pop r29
 143 0074 CF91      		pop r28
 144               	.LVL13:
 145 0076 1F91      		pop r17
 146 0078 0F91      		pop r16
 147 007a FF90      		pop r15
 148 007c EF90      		pop r14
 149               	.LVL14:
 150 007e 0895      		ret
 151               		.cfi_endproc
 152               	.LFE85:
 154               		.section	.text.Endpoint_Null_Stream,"ax",@progbits
 155               	.global	Endpoint_Null_Stream
 157               	Endpoint_Null_Stream:
 158               	.LFB86:
  80:../tmk_core/protocol/lufa/LUFA-git/LUFA/Drivers/USB/Core/AVR8/EndpointStream_AVR8.c **** 
  81:../tmk_core/protocol/lufa/LUFA-git/LUFA/Drivers/USB/Core/AVR8/EndpointStream_AVR8.c **** uint8_t Endpoint_Null_Stream(uint16_t Length,
  82:../tmk_core/protocol/lufa/LUFA-git/LUFA/Drivers/USB/Core/AVR8/EndpointStream_AVR8.c ****                              uint16_t* const BytesProcessed)
  83:../tmk_core/protocol/lufa/LUFA-git/LUFA/Drivers/USB/Core/AVR8/EndpointStream_AVR8.c **** {
 159               		.loc 1 83 0
 160               		.cfi_startproc
 161               	.LVL15:
 162 0000 EF92      		push r14
 163               	.LCFI6:
 164               		.cfi_def_cfa_offset 3
 165               		.cfi_offset 14, -2
 166 0002 FF92      		push r15
 167               	.LCFI7:
 168               		.cfi_def_cfa_offset 4
 169               		.cfi_offset 15, -3
 170 0004 0F93      		push r16
 171               	.LCFI8:
 172               		.cfi_def_cfa_offset 5
 173               		.cfi_offset 16, -4
 174 0006 1F93      		push r17
 175               	.LCFI9:
 176               		.cfi_def_cfa_offset 6
 177               		.cfi_offset 17, -5
 178 0008 CF93      		push r28
 179               	.LCFI10:
 180               		.cfi_def_cfa_offset 7
 181               		.cfi_offset 28, -6
 182 000a DF93      		push r29
 183               	.LCFI11:
 184               		.cfi_def_cfa_offset 8
 185               		.cfi_offset 29, -7
 186               	/* prologue: function */
 187               	/* frame size = 0 */
 188               	/* stack size = 6 */
 189               	.L__stack_usage = 6
 190 000c EC01      		movw r28,r24
 191 000e 7B01      		movw r14,r22
 192               	.LVL16:
  84:../tmk_core/protocol/lufa/LUFA-git/LUFA/Drivers/USB/Core/AVR8/EndpointStream_AVR8.c **** 	uint8_t  ErrorCode;
  85:../tmk_core/protocol/lufa/LUFA-git/LUFA/Drivers/USB/Core/AVR8/EndpointStream_AVR8.c **** 	uint16_t BytesInTransfer = 0;
  86:../tmk_core/protocol/lufa/LUFA-git/LUFA/Drivers/USB/Core/AVR8/EndpointStream_AVR8.c **** 
  87:../tmk_core/protocol/lufa/LUFA-git/LUFA/Drivers/USB/Core/AVR8/EndpointStream_AVR8.c **** 	if ((ErrorCode = Endpoint_WaitUntilReady()))
 193               		.loc 1 87 0
 194 0010 0E94 0000 		call Endpoint_WaitUntilReady
 195               	.LVL17:
 196 0014 8111      		cpse r24,__zero_reg__
 197 0016 00C0      		rjmp .L17
  88:../tmk_core/protocol/lufa/LUFA-git/LUFA/Drivers/USB/Core/AVR8/EndpointStream_AVR8.c **** 	  return ErrorCode;
  89:../tmk_core/protocol/lufa/LUFA-git/LUFA/Drivers/USB/Core/AVR8/EndpointStream_AVR8.c **** 
  90:../tmk_core/protocol/lufa/LUFA-git/LUFA/Drivers/USB/Core/AVR8/EndpointStream_AVR8.c **** 	if (BytesProcessed != NULL)
 198               		.loc 1 90 0
 199 0018 E114      		cp r14,__zero_reg__
 200 001a F104      		cpc r15,__zero_reg__
 201 001c 01F0      		breq .L18
  91:../tmk_core/protocol/lufa/LUFA-git/LUFA/Drivers/USB/Core/AVR8/EndpointStream_AVR8.c **** 	  Length -= *BytesProcessed;
 202               		.loc 1 91 0
 203 001e F701      		movw r30,r14
 204 0020 8081      		ld r24,Z
 205 0022 9181      		ldd r25,Z+1
 206               	.LVL18:
 207 0024 C81B      		sub r28,r24
 208 0026 D90B      		sbc r29,r25
 209               	.LVL19:
 210               	.L18:
  83:../tmk_core/protocol/lufa/LUFA-git/LUFA/Drivers/USB/Core/AVR8/EndpointStream_AVR8.c **** 	uint8_t  ErrorCode;
 211               		.loc 1 83 0
 212 0028 00E0      		ldi r16,0
 213 002a 10E0      		ldi r17,0
 214               	.LVL20:
 215               	.L19:
  92:../tmk_core/protocol/lufa/LUFA-git/LUFA/Drivers/USB/Core/AVR8/EndpointStream_AVR8.c **** 
  93:../tmk_core/protocol/lufa/LUFA-git/LUFA/Drivers/USB/Core/AVR8/EndpointStream_AVR8.c **** 	while (Length)
 216               		.loc 1 93 0
 217 002c 2097      		sbiw r28,0
 218 002e 01F0      		breq .L29
 219               	.LBB274:
 220               	.LBB275:
 360:../tmk_core/protocol/lufa/LUFA-git/LUFA/Drivers/USB/Core/AVR8/../AVR8/../AVR8/Endpoint_AVR8.h **** 			}
 221               		.loc 2 360 0
 222 0030 8091 E800 		lds r24,232
 223               	.LBE275:
 224               	.LBE274:
  94:../tmk_core/protocol/lufa/LUFA-git/LUFA/Drivers/USB/Core/AVR8/EndpointStream_AVR8.c **** 	{
  95:../tmk_core/protocol/lufa/LUFA-git/LUFA/Drivers/USB/Core/AVR8/EndpointStream_AVR8.c **** 		if (!(Endpoint_IsReadWriteAllowed()))
 225               		.loc 1 95 0
 226 0034 85FD      		sbrc r24,5
 227 0036 00C0      		rjmp .L20
 228               	.LBB276:
 229               	.LBB277:
 456:../tmk_core/protocol/lufa/LUFA-git/LUFA/Drivers/USB/Core/AVR8/../AVR8/../AVR8/Endpoint_AVR8.h **** 				#else
 230               		.loc 2 456 0
 231 0038 8091 E800 		lds r24,232
 232 003c 8E77      		andi r24,lo8(126)
 233 003e 8093 E800 		sts 232,r24
 234               	.LBE277:
 235               	.LBE276:
  96:../tmk_core/protocol/lufa/LUFA-git/LUFA/Drivers/USB/Core/AVR8/EndpointStream_AVR8.c **** 		{
  97:../tmk_core/protocol/lufa/LUFA-git/LUFA/Drivers/USB/Core/AVR8/EndpointStream_AVR8.c **** 			Endpoint_ClearIN();
  98:../tmk_core/protocol/lufa/LUFA-git/LUFA/Drivers/USB/Core/AVR8/EndpointStream_AVR8.c **** 
  99:../tmk_core/protocol/lufa/LUFA-git/LUFA/Drivers/USB/Core/AVR8/EndpointStream_AVR8.c **** 			if (BytesProcessed != NULL)
 236               		.loc 1 99 0
 237 0042 E114      		cp r14,__zero_reg__
 238 0044 F104      		cpc r15,__zero_reg__
 239 0046 01F0      		breq .L21
 100:../tmk_core/protocol/lufa/LUFA-git/LUFA/Drivers/USB/Core/AVR8/EndpointStream_AVR8.c **** 			{
 101:../tmk_core/protocol/lufa/LUFA-git/LUFA/Drivers/USB/Core/AVR8/EndpointStream_AVR8.c **** 				*BytesProcessed += BytesInTransfer;
 240               		.loc 1 101 0
 241 0048 F701      		movw r30,r14
 242 004a 8081      		ld r24,Z
 243 004c 9181      		ldd r25,Z+1
 244 004e 080F      		add r16,r24
 245 0050 191F      		adc r17,r25
 246               	.LVL21:
 247 0052 1183      		std Z+1,r17
 248 0054 0083      		st Z,r16
 102:../tmk_core/protocol/lufa/LUFA-git/LUFA/Drivers/USB/Core/AVR8/EndpointStream_AVR8.c **** 				return ENDPOINT_RWSTREAM_IncompleteTransfer;
 249               		.loc 1 102 0
 250 0056 85E0      		ldi r24,lo8(5)
 251 0058 00C0      		rjmp .L17
 252               	.LVL22:
 253               	.L21:
 103:../tmk_core/protocol/lufa/LUFA-git/LUFA/Drivers/USB/Core/AVR8/EndpointStream_AVR8.c **** 			}
 104:../tmk_core/protocol/lufa/LUFA-git/LUFA/Drivers/USB/Core/AVR8/EndpointStream_AVR8.c **** 
 105:../tmk_core/protocol/lufa/LUFA-git/LUFA/Drivers/USB/Core/AVR8/EndpointStream_AVR8.c **** 			if ((ErrorCode = Endpoint_WaitUntilReady()))
 254               		.loc 1 105 0
 255 005a 0E94 0000 		call Endpoint_WaitUntilReady
 256               	.LVL23:
 257 005e 8823      		tst r24
 258 0060 01F0      		breq .L19
 259 0062 00C0      		rjmp .L17
 260               	.LVL24:
 261               	.L20:
 262               	.LBB278:
 263               	.LBB279:
 554:../tmk_core/protocol/lufa/LUFA-git/LUFA/Drivers/USB/Core/AVR8/../AVR8/../AVR8/Endpoint_AVR8.h **** 			}
 264               		.loc 2 554 0
 265 0064 1092 F100 		sts 241,__zero_reg__
 266               	.LBE279:
 267               	.LBE278:
 106:../tmk_core/protocol/lufa/LUFA-git/LUFA/Drivers/USB/Core/AVR8/EndpointStream_AVR8.c **** 			  return ErrorCode;
 107:../tmk_core/protocol/lufa/LUFA-git/LUFA/Drivers/USB/Core/AVR8/EndpointStream_AVR8.c **** 		}
 108:../tmk_core/protocol/lufa/LUFA-git/LUFA/Drivers/USB/Core/AVR8/EndpointStream_AVR8.c **** 		else
 109:../tmk_core/protocol/lufa/LUFA-git/LUFA/Drivers/USB/Core/AVR8/EndpointStream_AVR8.c **** 		{
 110:../tmk_core/protocol/lufa/LUFA-git/LUFA/Drivers/USB/Core/AVR8/EndpointStream_AVR8.c **** 			Endpoint_Write_8(0);
 111:../tmk_core/protocol/lufa/LUFA-git/LUFA/Drivers/USB/Core/AVR8/EndpointStream_AVR8.c **** 
 112:../tmk_core/protocol/lufa/LUFA-git/LUFA/Drivers/USB/Core/AVR8/EndpointStream_AVR8.c **** 			Length--;
 268               		.loc 1 112 0
 269 0068 2197      		sbiw r28,1
 270               	.LVL25:
 113:../tmk_core/protocol/lufa/LUFA-git/LUFA/Drivers/USB/Core/AVR8/EndpointStream_AVR8.c **** 			BytesInTransfer++;
 271               		.loc 1 113 0
 272 006a 0F5F      		subi r16,-1
 273 006c 1F4F      		sbci r17,-1
 274               	.LVL26:
 275 006e 00C0      		rjmp .L19
 276               	.LVL27:
 277               	.L29:
 114:../tmk_core/protocol/lufa/LUFA-git/LUFA/Drivers/USB/Core/AVR8/EndpointStream_AVR8.c **** 		}
 115:../tmk_core/protocol/lufa/LUFA-git/LUFA/Drivers/USB/Core/AVR8/EndpointStream_AVR8.c **** 	}
 116:../tmk_core/protocol/lufa/LUFA-git/LUFA/Drivers/USB/Core/AVR8/EndpointStream_AVR8.c **** 
 117:../tmk_core/protocol/lufa/LUFA-git/LUFA/Drivers/USB/Core/AVR8/EndpointStream_AVR8.c **** 	return ENDPOINT_RWSTREAM_NoError;
 278               		.loc 1 117 0
 279 0070 80E0      		ldi r24,0
 280               	.LVL28:
 281               	.L17:
 282               	/* epilogue start */
 118:../tmk_core/protocol/lufa/LUFA-git/LUFA/Drivers/USB/Core/AVR8/EndpointStream_AVR8.c **** }
 283               		.loc 1 118 0
 284 0072 DF91      		pop r29
 285 0074 CF91      		pop r28
 286               	.LVL29:
 287 0076 1F91      		pop r17
 288 0078 0F91      		pop r16
 289 007a FF90      		pop r15
 290 007c EF90      		pop r14
 291               	.LVL30:
 292 007e 0895      		ret
 293               		.cfi_endproc
 294               	.LFE86:
 296               		.section	.text.Endpoint_Write_Stream_LE,"ax",@progbits
 297               	.global	Endpoint_Write_Stream_LE
 299               	Endpoint_Write_Stream_LE:
 300               	.LFB87:
 301               		.file 3 "../tmk_core/protocol/lufa/LUFA-git/LUFA/Drivers/USB/Core/AVR8/Template/Template_Endpoint_
   1:../tmk_core/protocol/lufa/LUFA-git/LUFA/Drivers/USB/Core/AVR8/Template/Template_Endpoint_RW.c **** /*
   2:../tmk_core/protocol/lufa/LUFA-git/LUFA/Drivers/USB/Core/AVR8/Template/Template_Endpoint_RW.c ****              LUFA Library
   3:../tmk_core/protocol/lufa/LUFA-git/LUFA/Drivers/USB/Core/AVR8/Template/Template_Endpoint_RW.c ****      Copyright (C) Dean Camera, 2014.
   4:../tmk_core/protocol/lufa/LUFA-git/LUFA/Drivers/USB/Core/AVR8/Template/Template_Endpoint_RW.c **** 
   5:../tmk_core/protocol/lufa/LUFA-git/LUFA/Drivers/USB/Core/AVR8/Template/Template_Endpoint_RW.c ****   dean [at] fourwalledcubicle [dot] com
   6:../tmk_core/protocol/lufa/LUFA-git/LUFA/Drivers/USB/Core/AVR8/Template/Template_Endpoint_RW.c ****            www.lufa-lib.org
   7:../tmk_core/protocol/lufa/LUFA-git/LUFA/Drivers/USB/Core/AVR8/Template/Template_Endpoint_RW.c **** */
   8:../tmk_core/protocol/lufa/LUFA-git/LUFA/Drivers/USB/Core/AVR8/Template/Template_Endpoint_RW.c **** 
   9:../tmk_core/protocol/lufa/LUFA-git/LUFA/Drivers/USB/Core/AVR8/Template/Template_Endpoint_RW.c **** /*
  10:../tmk_core/protocol/lufa/LUFA-git/LUFA/Drivers/USB/Core/AVR8/Template/Template_Endpoint_RW.c ****   Copyright 2014  Dean Camera (dean [at] fourwalledcubicle [dot] com)
  11:../tmk_core/protocol/lufa/LUFA-git/LUFA/Drivers/USB/Core/AVR8/Template/Template_Endpoint_RW.c **** 
  12:../tmk_core/protocol/lufa/LUFA-git/LUFA/Drivers/USB/Core/AVR8/Template/Template_Endpoint_RW.c ****   Permission to use, copy, modify, distribute, and sell this
  13:../tmk_core/protocol/lufa/LUFA-git/LUFA/Drivers/USB/Core/AVR8/Template/Template_Endpoint_RW.c ****   software and its documentation for any purpose is hereby granted
  14:../tmk_core/protocol/lufa/LUFA-git/LUFA/Drivers/USB/Core/AVR8/Template/Template_Endpoint_RW.c ****   without fee, provided that the above copyright notice appear in
  15:../tmk_core/protocol/lufa/LUFA-git/LUFA/Drivers/USB/Core/AVR8/Template/Template_Endpoint_RW.c ****   all copies and that both that the copyright notice and this
  16:../tmk_core/protocol/lufa/LUFA-git/LUFA/Drivers/USB/Core/AVR8/Template/Template_Endpoint_RW.c ****   permission notice and warranty disclaimer appear in supporting
  17:../tmk_core/protocol/lufa/LUFA-git/LUFA/Drivers/USB/Core/AVR8/Template/Template_Endpoint_RW.c ****   documentation, and that the name of the author not be used in
  18:../tmk_core/protocol/lufa/LUFA-git/LUFA/Drivers/USB/Core/AVR8/Template/Template_Endpoint_RW.c ****   advertising or publicity pertaining to distribution of the
  19:../tmk_core/protocol/lufa/LUFA-git/LUFA/Drivers/USB/Core/AVR8/Template/Template_Endpoint_RW.c ****   software without specific, written prior permission.
  20:../tmk_core/protocol/lufa/LUFA-git/LUFA/Drivers/USB/Core/AVR8/Template/Template_Endpoint_RW.c **** 
  21:../tmk_core/protocol/lufa/LUFA-git/LUFA/Drivers/USB/Core/AVR8/Template/Template_Endpoint_RW.c ****   The author disclaims all warranties with regard to this
  22:../tmk_core/protocol/lufa/LUFA-git/LUFA/Drivers/USB/Core/AVR8/Template/Template_Endpoint_RW.c ****   software, including all implied warranties of merchantability
  23:../tmk_core/protocol/lufa/LUFA-git/LUFA/Drivers/USB/Core/AVR8/Template/Template_Endpoint_RW.c ****   and fitness.  In no event shall the author be liable for any
  24:../tmk_core/protocol/lufa/LUFA-git/LUFA/Drivers/USB/Core/AVR8/Template/Template_Endpoint_RW.c ****   special, indirect or consequential damages or any damages
  25:../tmk_core/protocol/lufa/LUFA-git/LUFA/Drivers/USB/Core/AVR8/Template/Template_Endpoint_RW.c ****   whatsoever resulting from loss of use, data or profits, whether
  26:../tmk_core/protocol/lufa/LUFA-git/LUFA/Drivers/USB/Core/AVR8/Template/Template_Endpoint_RW.c ****   in an action of contract, negligence or other tortious action,
  27:../tmk_core/protocol/lufa/LUFA-git/LUFA/Drivers/USB/Core/AVR8/Template/Template_Endpoint_RW.c ****   arising out of or in connection with the use or performance of
  28:../tmk_core/protocol/lufa/LUFA-git/LUFA/Drivers/USB/Core/AVR8/Template/Template_Endpoint_RW.c ****   this software.
  29:../tmk_core/protocol/lufa/LUFA-git/LUFA/Drivers/USB/Core/AVR8/Template/Template_Endpoint_RW.c **** */
  30:../tmk_core/protocol/lufa/LUFA-git/LUFA/Drivers/USB/Core/AVR8/Template/Template_Endpoint_RW.c **** 
  31:../tmk_core/protocol/lufa/LUFA-git/LUFA/Drivers/USB/Core/AVR8/Template/Template_Endpoint_RW.c **** #if defined(TEMPLATE_FUNC_NAME)
  32:../tmk_core/protocol/lufa/LUFA-git/LUFA/Drivers/USB/Core/AVR8/Template/Template_Endpoint_RW.c **** 
  33:../tmk_core/protocol/lufa/LUFA-git/LUFA/Drivers/USB/Core/AVR8/Template/Template_Endpoint_RW.c **** uint8_t TEMPLATE_FUNC_NAME (TEMPLATE_BUFFER_TYPE const Buffer,
  34:../tmk_core/protocol/lufa/LUFA-git/LUFA/Drivers/USB/Core/AVR8/Template/Template_Endpoint_RW.c ****                             uint16_t Length,
  35:../tmk_core/protocol/lufa/LUFA-git/LUFA/Drivers/USB/Core/AVR8/Template/Template_Endpoint_RW.c ****                             uint16_t* const BytesProcessed)
  36:../tmk_core/protocol/lufa/LUFA-git/LUFA/Drivers/USB/Core/AVR8/Template/Template_Endpoint_RW.c **** {
 302               		.loc 3 36 0
 303               		.cfi_startproc
 304               	.LVL31:
 305 0000 CF92      		push r12
 306               	.LCFI12:
 307               		.cfi_def_cfa_offset 3
 308               		.cfi_offset 12, -2
 309 0002 DF92      		push r13
 310               	.LCFI13:
 311               		.cfi_def_cfa_offset 4
 312               		.cfi_offset 13, -3
 313 0004 EF92      		push r14
 314               	.LCFI14:
 315               		.cfi_def_cfa_offset 5
 316               		.cfi_offset 14, -4
 317 0006 FF92      		push r15
 318               	.LCFI15:
 319               		.cfi_def_cfa_offset 6
 320               		.cfi_offset 15, -5
 321 0008 0F93      		push r16
 322               	.LCFI16:
 323               		.cfi_def_cfa_offset 7
 324               		.cfi_offset 16, -6
 325 000a 1F93      		push r17
 326               	.LCFI17:
 327               		.cfi_def_cfa_offset 8
 328               		.cfi_offset 17, -7
 329 000c CF93      		push r28
 330               	.LCFI18:
 331               		.cfi_def_cfa_offset 9
 332               		.cfi_offset 28, -8
 333 000e DF93      		push r29
 334               	.LCFI19:
 335               		.cfi_def_cfa_offset 10
 336               		.cfi_offset 29, -9
 337               	/* prologue: function */
 338               	/* frame size = 0 */
 339               	/* stack size = 8 */
 340               	.L__stack_usage = 8
 341 0010 EC01      		movw r28,r24
 342 0012 8B01      		movw r16,r22
 343 0014 6A01      		movw r12,r20
 344               	.LVL32:
  37:../tmk_core/protocol/lufa/LUFA-git/LUFA/Drivers/USB/Core/AVR8/Template/Template_Endpoint_RW.c **** 	uint8_t* DataStream      = ((uint8_t*)Buffer + TEMPLATE_BUFFER_OFFSET(Length));
  38:../tmk_core/protocol/lufa/LUFA-git/LUFA/Drivers/USB/Core/AVR8/Template/Template_Endpoint_RW.c **** 	uint16_t BytesInTransfer = 0;
  39:../tmk_core/protocol/lufa/LUFA-git/LUFA/Drivers/USB/Core/AVR8/Template/Template_Endpoint_RW.c **** 	uint8_t  ErrorCode;
  40:../tmk_core/protocol/lufa/LUFA-git/LUFA/Drivers/USB/Core/AVR8/Template/Template_Endpoint_RW.c **** 
  41:../tmk_core/protocol/lufa/LUFA-git/LUFA/Drivers/USB/Core/AVR8/Template/Template_Endpoint_RW.c **** 	if ((ErrorCode = Endpoint_WaitUntilReady()))
 345               		.loc 3 41 0
 346 0016 0E94 0000 		call Endpoint_WaitUntilReady
 347               	.LVL33:
 348 001a 8111      		cpse r24,__zero_reg__
 349 001c 00C0      		rjmp .L31
  42:../tmk_core/protocol/lufa/LUFA-git/LUFA/Drivers/USB/Core/AVR8/Template/Template_Endpoint_RW.c **** 	  return ErrorCode;
  43:../tmk_core/protocol/lufa/LUFA-git/LUFA/Drivers/USB/Core/AVR8/Template/Template_Endpoint_RW.c **** 
  44:../tmk_core/protocol/lufa/LUFA-git/LUFA/Drivers/USB/Core/AVR8/Template/Template_Endpoint_RW.c **** 	if (BytesProcessed != NULL)
 350               		.loc 3 44 0
 351 001e C114      		cp r12,__zero_reg__
 352 0020 D104      		cpc r13,__zero_reg__
 353 0022 01F0      		breq .L32
  45:../tmk_core/protocol/lufa/LUFA-git/LUFA/Drivers/USB/Core/AVR8/Template/Template_Endpoint_RW.c **** 	{
  46:../tmk_core/protocol/lufa/LUFA-git/LUFA/Drivers/USB/Core/AVR8/Template/Template_Endpoint_RW.c **** 		Length -= *BytesProcessed;
 354               		.loc 3 46 0
 355 0024 F601      		movw r30,r12
 356 0026 8081      		ld r24,Z
 357 0028 9181      		ldd r25,Z+1
 358               	.LVL34:
 359 002a 081B      		sub r16,r24
 360 002c 190B      		sbc r17,r25
 361               	.LVL35:
  47:../tmk_core/protocol/lufa/LUFA-git/LUFA/Drivers/USB/Core/AVR8/Template/Template_Endpoint_RW.c **** 		TEMPLATE_BUFFER_MOVE(DataStream, *BytesProcessed);
 362               		.loc 3 47 0
 363 002e C80F      		add r28,r24
 364 0030 D91F      		adc r29,r25
 365               	.LVL36:
 366               	.L32:
  37:../tmk_core/protocol/lufa/LUFA-git/LUFA/Drivers/USB/Core/AVR8/Template/Template_Endpoint_RW.c **** 	uint16_t BytesInTransfer = 0;
 367               		.loc 3 37 0
 368 0032 E12C      		mov r14,__zero_reg__
 369 0034 F12C      		mov r15,__zero_reg__
 370               	.LVL37:
 371               	.L33:
  48:../tmk_core/protocol/lufa/LUFA-git/LUFA/Drivers/USB/Core/AVR8/Template/Template_Endpoint_RW.c **** 	}
  49:../tmk_core/protocol/lufa/LUFA-git/LUFA/Drivers/USB/Core/AVR8/Template/Template_Endpoint_RW.c **** 
  50:../tmk_core/protocol/lufa/LUFA-git/LUFA/Drivers/USB/Core/AVR8/Template/Template_Endpoint_RW.c **** 	while (Length)
 372               		.loc 3 50 0
 373 0036 0115      		cp r16,__zero_reg__
 374 0038 1105      		cpc r17,__zero_reg__
 375 003a 01F0      		breq .L41
 376               	.LBB280:
 377               	.LBB281:
 360:../tmk_core/protocol/lufa/LUFA-git/LUFA/Drivers/USB/Core/AVR8/../AVR8/../AVR8/Endpoint_AVR8.h **** 			}
 378               		.loc 2 360 0
 379 003c 8091 E800 		lds r24,232
 380               	.LBE281:
 381               	.LBE280:
  51:../tmk_core/protocol/lufa/LUFA-git/LUFA/Drivers/USB/Core/AVR8/Template/Template_Endpoint_RW.c **** 	{
  52:../tmk_core/protocol/lufa/LUFA-git/LUFA/Drivers/USB/Core/AVR8/Template/Template_Endpoint_RW.c **** 		if (!(Endpoint_IsReadWriteAllowed()))
 382               		.loc 3 52 0
 383 0040 85FD      		sbrc r24,5
 384 0042 00C0      		rjmp .L34
 385               	.LBB282:
 386               	.LBB283:
 456:../tmk_core/protocol/lufa/LUFA-git/LUFA/Drivers/USB/Core/AVR8/../AVR8/../AVR8/Endpoint_AVR8.h **** 				#else
 387               		.loc 2 456 0
 388 0044 8091 E800 		lds r24,232
 389 0048 8E77      		andi r24,lo8(126)
 390 004a 8093 E800 		sts 232,r24
 391               	.LBE283:
 392               	.LBE282:
  53:../tmk_core/protocol/lufa/LUFA-git/LUFA/Drivers/USB/Core/AVR8/Template/Template_Endpoint_RW.c **** 		{
  54:../tmk_core/protocol/lufa/LUFA-git/LUFA/Drivers/USB/Core/AVR8/Template/Template_Endpoint_RW.c **** 			TEMPLATE_CLEAR_ENDPOINT();
  55:../tmk_core/protocol/lufa/LUFA-git/LUFA/Drivers/USB/Core/AVR8/Template/Template_Endpoint_RW.c **** 
  56:../tmk_core/protocol/lufa/LUFA-git/LUFA/Drivers/USB/Core/AVR8/Template/Template_Endpoint_RW.c **** 			#if !defined(INTERRUPT_CONTROL_ENDPOINT)
  57:../tmk_core/protocol/lufa/LUFA-git/LUFA/Drivers/USB/Core/AVR8/Template/Template_Endpoint_RW.c **** 			USB_USBTask();
  58:../tmk_core/protocol/lufa/LUFA-git/LUFA/Drivers/USB/Core/AVR8/Template/Template_Endpoint_RW.c **** 			#endif
  59:../tmk_core/protocol/lufa/LUFA-git/LUFA/Drivers/USB/Core/AVR8/Template/Template_Endpoint_RW.c **** 
  60:../tmk_core/protocol/lufa/LUFA-git/LUFA/Drivers/USB/Core/AVR8/Template/Template_Endpoint_RW.c **** 			if (BytesProcessed != NULL)
 393               		.loc 3 60 0
 394 004e C114      		cp r12,__zero_reg__
 395 0050 D104      		cpc r13,__zero_reg__
 396 0052 01F0      		breq .L35
  61:../tmk_core/protocol/lufa/LUFA-git/LUFA/Drivers/USB/Core/AVR8/Template/Template_Endpoint_RW.c **** 			{
  62:../tmk_core/protocol/lufa/LUFA-git/LUFA/Drivers/USB/Core/AVR8/Template/Template_Endpoint_RW.c **** 				*BytesProcessed += BytesInTransfer;
 397               		.loc 3 62 0
 398 0054 F601      		movw r30,r12
 399 0056 8081      		ld r24,Z
 400 0058 9181      		ldd r25,Z+1
 401 005a E80E      		add r14,r24
 402 005c F91E      		adc r15,r25
 403               	.LVL38:
 404 005e F182      		std Z+1,r15
 405 0060 E082      		st Z,r14
  63:../tmk_core/protocol/lufa/LUFA-git/LUFA/Drivers/USB/Core/AVR8/Template/Template_Endpoint_RW.c **** 				return ENDPOINT_RWSTREAM_IncompleteTransfer;
 406               		.loc 3 63 0
 407 0062 85E0      		ldi r24,lo8(5)
 408 0064 00C0      		rjmp .L31
 409               	.LVL39:
 410               	.L35:
  64:../tmk_core/protocol/lufa/LUFA-git/LUFA/Drivers/USB/Core/AVR8/Template/Template_Endpoint_RW.c **** 			}
  65:../tmk_core/protocol/lufa/LUFA-git/LUFA/Drivers/USB/Core/AVR8/Template/Template_Endpoint_RW.c **** 
  66:../tmk_core/protocol/lufa/LUFA-git/LUFA/Drivers/USB/Core/AVR8/Template/Template_Endpoint_RW.c **** 			if ((ErrorCode = Endpoint_WaitUntilReady()))
 411               		.loc 3 66 0
 412 0066 0E94 0000 		call Endpoint_WaitUntilReady
 413               	.LVL40:
 414 006a 8823      		tst r24
 415 006c 01F0      		breq .L33
 416 006e 00C0      		rjmp .L31
 417               	.LVL41:
 418               	.L34:
  67:../tmk_core/protocol/lufa/LUFA-git/LUFA/Drivers/USB/Core/AVR8/Template/Template_Endpoint_RW.c **** 			  return ErrorCode;
  68:../tmk_core/protocol/lufa/LUFA-git/LUFA/Drivers/USB/Core/AVR8/Template/Template_Endpoint_RW.c **** 		}
  69:../tmk_core/protocol/lufa/LUFA-git/LUFA/Drivers/USB/Core/AVR8/Template/Template_Endpoint_RW.c **** 		else
  70:../tmk_core/protocol/lufa/LUFA-git/LUFA/Drivers/USB/Core/AVR8/Template/Template_Endpoint_RW.c **** 		{
  71:../tmk_core/protocol/lufa/LUFA-git/LUFA/Drivers/USB/Core/AVR8/Template/Template_Endpoint_RW.c **** 			TEMPLATE_TRANSFER_BYTE(DataStream);
 419               		.loc 3 71 0
 420 0070 8991      		ld r24,Y+
 421               	.LVL42:
 422               	.LBB284:
 423               	.LBB285:
 554:../tmk_core/protocol/lufa/LUFA-git/LUFA/Drivers/USB/Core/AVR8/../AVR8/../AVR8/Endpoint_AVR8.h **** 			}
 424               		.loc 2 554 0
 425 0072 8093 F100 		sts 241,r24
 426               	.LVL43:
 427               	.LBE285:
 428               	.LBE284:
  72:../tmk_core/protocol/lufa/LUFA-git/LUFA/Drivers/USB/Core/AVR8/Template/Template_Endpoint_RW.c **** 			TEMPLATE_BUFFER_MOVE(DataStream, 1);
  73:../tmk_core/protocol/lufa/LUFA-git/LUFA/Drivers/USB/Core/AVR8/Template/Template_Endpoint_RW.c **** 			Length--;
 429               		.loc 3 73 0
 430 0076 0150      		subi r16,1
 431 0078 1109      		sbc r17,__zero_reg__
 432               	.LVL44:
  74:../tmk_core/protocol/lufa/LUFA-git/LUFA/Drivers/USB/Core/AVR8/Template/Template_Endpoint_RW.c **** 			BytesInTransfer++;
 433               		.loc 3 74 0
 434 007a FFEF      		ldi r31,-1
 435 007c EF1A      		sub r14,r31
 436 007e FF0A      		sbc r15,r31
 437               	.LVL45:
 438 0080 00C0      		rjmp .L33
 439               	.LVL46:
 440               	.L41:
  75:../tmk_core/protocol/lufa/LUFA-git/LUFA/Drivers/USB/Core/AVR8/Template/Template_Endpoint_RW.c **** 		}
  76:../tmk_core/protocol/lufa/LUFA-git/LUFA/Drivers/USB/Core/AVR8/Template/Template_Endpoint_RW.c **** 	}
  77:../tmk_core/protocol/lufa/LUFA-git/LUFA/Drivers/USB/Core/AVR8/Template/Template_Endpoint_RW.c **** 
  78:../tmk_core/protocol/lufa/LUFA-git/LUFA/Drivers/USB/Core/AVR8/Template/Template_Endpoint_RW.c **** 	return ENDPOINT_RWSTREAM_NoError;
 441               		.loc 3 78 0
 442 0082 80E0      		ldi r24,0
 443               	.LVL47:
 444               	.L31:
 445               	/* epilogue start */
  79:../tmk_core/protocol/lufa/LUFA-git/LUFA/Drivers/USB/Core/AVR8/Template/Template_Endpoint_RW.c **** }
 446               		.loc 3 79 0
 447 0084 DF91      		pop r29
 448 0086 CF91      		pop r28
 449               	.LVL48:
 450 0088 1F91      		pop r17
 451 008a 0F91      		pop r16
 452               	.LVL49:
 453 008c FF90      		pop r15
 454 008e EF90      		pop r14
 455 0090 DF90      		pop r13
 456 0092 CF90      		pop r12
 457               	.LVL50:
 458 0094 0895      		ret
 459               		.cfi_endproc
 460               	.LFE87:
 462               		.section	.text.Endpoint_Write_Stream_BE,"ax",@progbits
 463               	.global	Endpoint_Write_Stream_BE
 465               	Endpoint_Write_Stream_BE:
 466               	.LFB88:
  36:../tmk_core/protocol/lufa/LUFA-git/LUFA/Drivers/USB/Core/AVR8/Template/Template_Endpoint_RW.c **** 	uint8_t* DataStream      = ((uint8_t*)Buffer + TEMPLATE_BUFFER_OFFSET(Length));
 467               		.loc 3 36 0
 468               		.cfi_startproc
 469               	.LVL51:
 470 0000 CF92      		push r12
 471               	.LCFI20:
 472               		.cfi_def_cfa_offset 3
 473               		.cfi_offset 12, -2
 474 0002 DF92      		push r13
 475               	.LCFI21:
 476               		.cfi_def_cfa_offset 4
 477               		.cfi_offset 13, -3
 478 0004 EF92      		push r14
 479               	.LCFI22:
 480               		.cfi_def_cfa_offset 5
 481               		.cfi_offset 14, -4
 482 0006 FF92      		push r15
 483               	.LCFI23:
 484               		.cfi_def_cfa_offset 6
 485               		.cfi_offset 15, -5
 486 0008 0F93      		push r16
 487               	.LCFI24:
 488               		.cfi_def_cfa_offset 7
 489               		.cfi_offset 16, -6
 490 000a 1F93      		push r17
 491               	.LCFI25:
 492               		.cfi_def_cfa_offset 8
 493               		.cfi_offset 17, -7
 494 000c CF93      		push r28
 495               	.LCFI26:
 496               		.cfi_def_cfa_offset 9
 497               		.cfi_offset 28, -8
 498 000e DF93      		push r29
 499               	.LCFI27:
 500               		.cfi_def_cfa_offset 10
 501               		.cfi_offset 29, -9
 502               	/* prologue: function */
 503               	/* frame size = 0 */
 504               	/* stack size = 8 */
 505               	.L__stack_usage = 8
 506 0010 EC01      		movw r28,r24
 507 0012 8B01      		movw r16,r22
 508 0014 6A01      		movw r12,r20
 509               	.LVL52:
  41:../tmk_core/protocol/lufa/LUFA-git/LUFA/Drivers/USB/Core/AVR8/Template/Template_Endpoint_RW.c **** 	  return ErrorCode;
 510               		.loc 3 41 0
 511 0016 0E94 0000 		call Endpoint_WaitUntilReady
 512               	.LVL53:
 513 001a 8111      		cpse r24,__zero_reg__
 514 001c 00C0      		rjmp .L43
  37:../tmk_core/protocol/lufa/LUFA-git/LUFA/Drivers/USB/Core/AVR8/Template/Template_Endpoint_RW.c **** 	uint16_t BytesInTransfer = 0;
 515               		.loc 3 37 0
 516 001e 9801      		movw r18,r16
 517 0020 2150      		subi r18,1
 518 0022 3109      		sbc r19,__zero_reg__
 519               	.LVL54:
 520 0024 C20F      		add r28,r18
 521 0026 D31F      		adc r29,r19
 522               	.LVL55:
  44:../tmk_core/protocol/lufa/LUFA-git/LUFA/Drivers/USB/Core/AVR8/Template/Template_Endpoint_RW.c **** 	{
 523               		.loc 3 44 0
 524 0028 C114      		cp r12,__zero_reg__
 525 002a D104      		cpc r13,__zero_reg__
 526 002c 01F0      		breq .L44
  46:../tmk_core/protocol/lufa/LUFA-git/LUFA/Drivers/USB/Core/AVR8/Template/Template_Endpoint_RW.c **** 		TEMPLATE_BUFFER_MOVE(DataStream, *BytesProcessed);
 527               		.loc 3 46 0
 528 002e F601      		movw r30,r12
 529 0030 8081      		ld r24,Z
 530 0032 9181      		ldd r25,Z+1
 531               	.LVL56:
 532 0034 081B      		sub r16,r24
 533 0036 190B      		sbc r17,r25
 534               	.LVL57:
  47:../tmk_core/protocol/lufa/LUFA-git/LUFA/Drivers/USB/Core/AVR8/Template/Template_Endpoint_RW.c **** 	}
 535               		.loc 3 47 0
 536 0038 C81B      		sub r28,r24
 537 003a D90B      		sbc r29,r25
 538               	.LVL58:
 539               	.L44:
  36:../tmk_core/protocol/lufa/LUFA-git/LUFA/Drivers/USB/Core/AVR8/Template/Template_Endpoint_RW.c **** 	uint8_t* DataStream      = ((uint8_t*)Buffer + TEMPLATE_BUFFER_OFFSET(Length));
 540               		.loc 3 36 0
 541 003c E12C      		mov r14,__zero_reg__
 542 003e F12C      		mov r15,__zero_reg__
 543               	.LVL59:
 544               	.L45:
  50:../tmk_core/protocol/lufa/LUFA-git/LUFA/Drivers/USB/Core/AVR8/Template/Template_Endpoint_RW.c **** 	{
 545               		.loc 3 50 0
 546 0040 0115      		cp r16,__zero_reg__
 547 0042 1105      		cpc r17,__zero_reg__
 548 0044 01F0      		breq .L55
 549               	.LBB286:
 550               	.LBB287:
 360:../tmk_core/protocol/lufa/LUFA-git/LUFA/Drivers/USB/Core/AVR8/../AVR8/../AVR8/Endpoint_AVR8.h **** 			}
 551               		.loc 2 360 0
 552 0046 8091 E800 		lds r24,232
 553               	.LBE287:
 554               	.LBE286:
  52:../tmk_core/protocol/lufa/LUFA-git/LUFA/Drivers/USB/Core/AVR8/Template/Template_Endpoint_RW.c **** 		{
 555               		.loc 3 52 0
 556 004a 85FD      		sbrc r24,5
 557 004c 00C0      		rjmp .L46
 558               	.LBB288:
 559               	.LBB289:
 456:../tmk_core/protocol/lufa/LUFA-git/LUFA/Drivers/USB/Core/AVR8/../AVR8/../AVR8/Endpoint_AVR8.h **** 				#else
 560               		.loc 2 456 0
 561 004e 8091 E800 		lds r24,232
 562 0052 8E77      		andi r24,lo8(126)
 563 0054 8093 E800 		sts 232,r24
 564               	.LBE289:
 565               	.LBE288:
  60:../tmk_core/protocol/lufa/LUFA-git/LUFA/Drivers/USB/Core/AVR8/Template/Template_Endpoint_RW.c **** 			{
 566               		.loc 3 60 0
 567 0058 C114      		cp r12,__zero_reg__
 568 005a D104      		cpc r13,__zero_reg__
 569 005c 01F0      		breq .L47
  62:../tmk_core/protocol/lufa/LUFA-git/LUFA/Drivers/USB/Core/AVR8/Template/Template_Endpoint_RW.c **** 				return ENDPOINT_RWSTREAM_IncompleteTransfer;
 570               		.loc 3 62 0
 571 005e F601      		movw r30,r12
 572 0060 8081      		ld r24,Z
 573 0062 9181      		ldd r25,Z+1
 574 0064 E80E      		add r14,r24
 575 0066 F91E      		adc r15,r25
 576               	.LVL60:
 577 0068 F182      		std Z+1,r15
 578 006a E082      		st Z,r14
  63:../tmk_core/protocol/lufa/LUFA-git/LUFA/Drivers/USB/Core/AVR8/Template/Template_Endpoint_RW.c **** 			}
 579               		.loc 3 63 0
 580 006c 85E0      		ldi r24,lo8(5)
 581 006e 00C0      		rjmp .L43
 582               	.LVL61:
 583               	.L47:
  66:../tmk_core/protocol/lufa/LUFA-git/LUFA/Drivers/USB/Core/AVR8/Template/Template_Endpoint_RW.c **** 			  return ErrorCode;
 584               		.loc 3 66 0
 585 0070 0E94 0000 		call Endpoint_WaitUntilReady
 586               	.LVL62:
 587 0074 8823      		tst r24
 588 0076 01F0      		breq .L45
 589 0078 00C0      		rjmp .L43
 590               	.LVL63:
 591               	.L46:
  71:../tmk_core/protocol/lufa/LUFA-git/LUFA/Drivers/USB/Core/AVR8/Template/Template_Endpoint_RW.c **** 			TEMPLATE_BUFFER_MOVE(DataStream, 1);
 592               		.loc 3 71 0
 593 007a 8881      		ld r24,Y
 594               	.LVL64:
 595               	.LBB290:
 596               	.LBB291:
 554:../tmk_core/protocol/lufa/LUFA-git/LUFA/Drivers/USB/Core/AVR8/../AVR8/../AVR8/Endpoint_AVR8.h **** 			}
 597               		.loc 2 554 0
 598 007c 8093 F100 		sts 241,r24
 599               	.LBE291:
 600               	.LBE290:
  72:../tmk_core/protocol/lufa/LUFA-git/LUFA/Drivers/USB/Core/AVR8/Template/Template_Endpoint_RW.c **** 			Length--;
 601               		.loc 3 72 0
 602 0080 2197      		sbiw r28,1
 603               	.LVL65:
  73:../tmk_core/protocol/lufa/LUFA-git/LUFA/Drivers/USB/Core/AVR8/Template/Template_Endpoint_RW.c **** 			BytesInTransfer++;
 604               		.loc 3 73 0
 605 0082 0150      		subi r16,1
 606 0084 1109      		sbc r17,__zero_reg__
 607               	.LVL66:
  74:../tmk_core/protocol/lufa/LUFA-git/LUFA/Drivers/USB/Core/AVR8/Template/Template_Endpoint_RW.c **** 		}
 608               		.loc 3 74 0
 609 0086 FFEF      		ldi r31,-1
 610 0088 EF1A      		sub r14,r31
 611 008a FF0A      		sbc r15,r31
 612               	.LVL67:
 613 008c 00C0      		rjmp .L45
 614               	.LVL68:
 615               	.L55:
  78:../tmk_core/protocol/lufa/LUFA-git/LUFA/Drivers/USB/Core/AVR8/Template/Template_Endpoint_RW.c **** }
 616               		.loc 3 78 0
 617 008e 80E0      		ldi r24,0
 618               	.LVL69:
 619               	.L43:
 620               	/* epilogue start */
 621               		.loc 3 79 0
 622 0090 DF91      		pop r29
 623 0092 CF91      		pop r28
 624 0094 1F91      		pop r17
 625 0096 0F91      		pop r16
 626               	.LVL70:
 627 0098 FF90      		pop r15
 628 009a EF90      		pop r14
 629 009c DF90      		pop r13
 630 009e CF90      		pop r12
 631               	.LVL71:
 632 00a0 0895      		ret
 633               		.cfi_endproc
 634               	.LFE88:
 636               		.section	.text.Endpoint_Read_Stream_LE,"ax",@progbits
 637               	.global	Endpoint_Read_Stream_LE
 639               	Endpoint_Read_Stream_LE:
 640               	.LFB89:
  36:../tmk_core/protocol/lufa/LUFA-git/LUFA/Drivers/USB/Core/AVR8/Template/Template_Endpoint_RW.c **** 	uint8_t* DataStream      = ((uint8_t*)Buffer + TEMPLATE_BUFFER_OFFSET(Length));
 641               		.loc 3 36 0
 642               		.cfi_startproc
 643               	.LVL72:
 644 0000 CF92      		push r12
 645               	.LCFI28:
 646               		.cfi_def_cfa_offset 3
 647               		.cfi_offset 12, -2
 648 0002 DF92      		push r13
 649               	.LCFI29:
 650               		.cfi_def_cfa_offset 4
 651               		.cfi_offset 13, -3
 652 0004 EF92      		push r14
 653               	.LCFI30:
 654               		.cfi_def_cfa_offset 5
 655               		.cfi_offset 14, -4
 656 0006 FF92      		push r15
 657               	.LCFI31:
 658               		.cfi_def_cfa_offset 6
 659               		.cfi_offset 15, -5
 660 0008 0F93      		push r16
 661               	.LCFI32:
 662               		.cfi_def_cfa_offset 7
 663               		.cfi_offset 16, -6
 664 000a 1F93      		push r17
 665               	.LCFI33:
 666               		.cfi_def_cfa_offset 8
 667               		.cfi_offset 17, -7
 668 000c CF93      		push r28
 669               	.LCFI34:
 670               		.cfi_def_cfa_offset 9
 671               		.cfi_offset 28, -8
 672 000e DF93      		push r29
 673               	.LCFI35:
 674               		.cfi_def_cfa_offset 10
 675               		.cfi_offset 29, -9
 676               	/* prologue: function */
 677               	/* frame size = 0 */
 678               	/* stack size = 8 */
 679               	.L__stack_usage = 8
 680 0010 EC01      		movw r28,r24
 681 0012 8B01      		movw r16,r22
 682 0014 6A01      		movw r12,r20
 683               	.LVL73:
  41:../tmk_core/protocol/lufa/LUFA-git/LUFA/Drivers/USB/Core/AVR8/Template/Template_Endpoint_RW.c **** 	  return ErrorCode;
 684               		.loc 3 41 0
 685 0016 0E94 0000 		call Endpoint_WaitUntilReady
 686               	.LVL74:
 687 001a 8111      		cpse r24,__zero_reg__
 688 001c 00C0      		rjmp .L57
  44:../tmk_core/protocol/lufa/LUFA-git/LUFA/Drivers/USB/Core/AVR8/Template/Template_Endpoint_RW.c **** 	{
 689               		.loc 3 44 0
 690 001e C114      		cp r12,__zero_reg__
 691 0020 D104      		cpc r13,__zero_reg__
 692 0022 01F0      		breq .L58
  46:../tmk_core/protocol/lufa/LUFA-git/LUFA/Drivers/USB/Core/AVR8/Template/Template_Endpoint_RW.c **** 		TEMPLATE_BUFFER_MOVE(DataStream, *BytesProcessed);
 693               		.loc 3 46 0
 694 0024 F601      		movw r30,r12
 695 0026 8081      		ld r24,Z
 696 0028 9181      		ldd r25,Z+1
 697               	.LVL75:
 698 002a 081B      		sub r16,r24
 699 002c 190B      		sbc r17,r25
 700               	.LVL76:
  47:../tmk_core/protocol/lufa/LUFA-git/LUFA/Drivers/USB/Core/AVR8/Template/Template_Endpoint_RW.c **** 	}
 701               		.loc 3 47 0
 702 002e C80F      		add r28,r24
 703 0030 D91F      		adc r29,r25
 704               	.LVL77:
 705               	.L58:
  37:../tmk_core/protocol/lufa/LUFA-git/LUFA/Drivers/USB/Core/AVR8/Template/Template_Endpoint_RW.c **** 	uint16_t BytesInTransfer = 0;
 706               		.loc 3 37 0
 707 0032 E12C      		mov r14,__zero_reg__
 708 0034 F12C      		mov r15,__zero_reg__
 709               	.LVL78:
 710               	.L59:
  50:../tmk_core/protocol/lufa/LUFA-git/LUFA/Drivers/USB/Core/AVR8/Template/Template_Endpoint_RW.c **** 	{
 711               		.loc 3 50 0
 712 0036 0115      		cp r16,__zero_reg__
 713 0038 1105      		cpc r17,__zero_reg__
 714 003a 01F0      		breq .L67
 715               	.LBB292:
 716               	.LBB293:
 360:../tmk_core/protocol/lufa/LUFA-git/LUFA/Drivers/USB/Core/AVR8/../AVR8/../AVR8/Endpoint_AVR8.h **** 			}
 717               		.loc 2 360 0
 718 003c 8091 E800 		lds r24,232
 719               	.LBE293:
 720               	.LBE292:
  52:../tmk_core/protocol/lufa/LUFA-git/LUFA/Drivers/USB/Core/AVR8/Template/Template_Endpoint_RW.c **** 		{
 721               		.loc 3 52 0
 722 0040 85FD      		sbrc r24,5
 723 0042 00C0      		rjmp .L60
 724               	.LBB294:
 725               	.LBB295:
 471:../tmk_core/protocol/lufa/LUFA-git/LUFA/Drivers/USB/Core/AVR8/../AVR8/../AVR8/Endpoint_AVR8.h **** 				#else
 726               		.loc 2 471 0
 727 0044 8091 E800 		lds r24,232
 728 0048 8B77      		andi r24,lo8(123)
 729 004a 8093 E800 		sts 232,r24
 730               	.LBE295:
 731               	.LBE294:
  60:../tmk_core/protocol/lufa/LUFA-git/LUFA/Drivers/USB/Core/AVR8/Template/Template_Endpoint_RW.c **** 			{
 732               		.loc 3 60 0
 733 004e C114      		cp r12,__zero_reg__
 734 0050 D104      		cpc r13,__zero_reg__
 735 0052 01F0      		breq .L61
  62:../tmk_core/protocol/lufa/LUFA-git/LUFA/Drivers/USB/Core/AVR8/Template/Template_Endpoint_RW.c **** 				return ENDPOINT_RWSTREAM_IncompleteTransfer;
 736               		.loc 3 62 0
 737 0054 F601      		movw r30,r12
 738 0056 8081      		ld r24,Z
 739 0058 9181      		ldd r25,Z+1
 740 005a E80E      		add r14,r24
 741 005c F91E      		adc r15,r25
 742               	.LVL79:
 743 005e F182      		std Z+1,r15
 744 0060 E082      		st Z,r14
  63:../tmk_core/protocol/lufa/LUFA-git/LUFA/Drivers/USB/Core/AVR8/Template/Template_Endpoint_RW.c **** 			}
 745               		.loc 3 63 0
 746 0062 85E0      		ldi r24,lo8(5)
 747 0064 00C0      		rjmp .L57
 748               	.LVL80:
 749               	.L61:
  66:../tmk_core/protocol/lufa/LUFA-git/LUFA/Drivers/USB/Core/AVR8/Template/Template_Endpoint_RW.c **** 			  return ErrorCode;
 750               		.loc 3 66 0
 751 0066 0E94 0000 		call Endpoint_WaitUntilReady
 752               	.LVL81:
 753 006a 8823      		tst r24
 754 006c 01F0      		breq .L59
 755 006e 00C0      		rjmp .L57
 756               	.LVL82:
 757               	.L60:
 758               	.LBB296:
 759               	.LBB297:
 542:../tmk_core/protocol/lufa/LUFA-git/LUFA/Drivers/USB/Core/AVR8/../AVR8/../AVR8/Endpoint_AVR8.h **** 			}
 760               		.loc 2 542 0
 761 0070 8091 F100 		lds r24,241
 762               	.LBE297:
 763               	.LBE296:
  71:../tmk_core/protocol/lufa/LUFA-git/LUFA/Drivers/USB/Core/AVR8/Template/Template_Endpoint_RW.c **** 			TEMPLATE_BUFFER_MOVE(DataStream, 1);
 764               		.loc 3 71 0
 765 0074 8993      		st Y+,r24
 766               	.LVL83:
  73:../tmk_core/protocol/lufa/LUFA-git/LUFA/Drivers/USB/Core/AVR8/Template/Template_Endpoint_RW.c **** 			BytesInTransfer++;
 767               		.loc 3 73 0
 768 0076 0150      		subi r16,1
 769 0078 1109      		sbc r17,__zero_reg__
 770               	.LVL84:
  74:../tmk_core/protocol/lufa/LUFA-git/LUFA/Drivers/USB/Core/AVR8/Template/Template_Endpoint_RW.c **** 		}
 771               		.loc 3 74 0
 772 007a FFEF      		ldi r31,-1
 773 007c EF1A      		sub r14,r31
 774 007e FF0A      		sbc r15,r31
 775               	.LVL85:
 776 0080 00C0      		rjmp .L59
 777               	.L67:
  78:../tmk_core/protocol/lufa/LUFA-git/LUFA/Drivers/USB/Core/AVR8/Template/Template_Endpoint_RW.c **** }
 778               		.loc 3 78 0
 779 0082 80E0      		ldi r24,0
 780               	.LVL86:
 781               	.L57:
 782               	/* epilogue start */
 783               		.loc 3 79 0
 784 0084 DF91      		pop r29
 785 0086 CF91      		pop r28
 786               	.LVL87:
 787 0088 1F91      		pop r17
 788 008a 0F91      		pop r16
 789               	.LVL88:
 790 008c FF90      		pop r15
 791 008e EF90      		pop r14
 792 0090 DF90      		pop r13
 793 0092 CF90      		pop r12
 794               	.LVL89:
 795 0094 0895      		ret
 796               		.cfi_endproc
 797               	.LFE89:
 799               		.section	.text.Endpoint_Read_Stream_BE,"ax",@progbits
 800               	.global	Endpoint_Read_Stream_BE
 802               	Endpoint_Read_Stream_BE:
 803               	.LFB90:
  36:../tmk_core/protocol/lufa/LUFA-git/LUFA/Drivers/USB/Core/AVR8/Template/Template_Endpoint_RW.c **** 	uint8_t* DataStream      = ((uint8_t*)Buffer + TEMPLATE_BUFFER_OFFSET(Length));
 804               		.loc 3 36 0
 805               		.cfi_startproc
 806               	.LVL90:
 807 0000 CF92      		push r12
 808               	.LCFI36:
 809               		.cfi_def_cfa_offset 3
 810               		.cfi_offset 12, -2
 811 0002 DF92      		push r13
 812               	.LCFI37:
 813               		.cfi_def_cfa_offset 4
 814               		.cfi_offset 13, -3
 815 0004 EF92      		push r14
 816               	.LCFI38:
 817               		.cfi_def_cfa_offset 5
 818               		.cfi_offset 14, -4
 819 0006 FF92      		push r15
 820               	.LCFI39:
 821               		.cfi_def_cfa_offset 6
 822               		.cfi_offset 15, -5
 823 0008 0F93      		push r16
 824               	.LCFI40:
 825               		.cfi_def_cfa_offset 7
 826               		.cfi_offset 16, -6
 827 000a 1F93      		push r17
 828               	.LCFI41:
 829               		.cfi_def_cfa_offset 8
 830               		.cfi_offset 17, -7
 831 000c CF93      		push r28
 832               	.LCFI42:
 833               		.cfi_def_cfa_offset 9
 834               		.cfi_offset 28, -8
 835 000e DF93      		push r29
 836               	.LCFI43:
 837               		.cfi_def_cfa_offset 10
 838               		.cfi_offset 29, -9
 839               	/* prologue: function */
 840               	/* frame size = 0 */
 841               	/* stack size = 8 */
 842               	.L__stack_usage = 8
 843 0010 EC01      		movw r28,r24
 844 0012 8B01      		movw r16,r22
 845 0014 6A01      		movw r12,r20
 846               	.LVL91:
  41:../tmk_core/protocol/lufa/LUFA-git/LUFA/Drivers/USB/Core/AVR8/Template/Template_Endpoint_RW.c **** 	  return ErrorCode;
 847               		.loc 3 41 0
 848 0016 0E94 0000 		call Endpoint_WaitUntilReady
 849               	.LVL92:
 850 001a 8111      		cpse r24,__zero_reg__
 851 001c 00C0      		rjmp .L69
  37:../tmk_core/protocol/lufa/LUFA-git/LUFA/Drivers/USB/Core/AVR8/Template/Template_Endpoint_RW.c **** 	uint16_t BytesInTransfer = 0;
 852               		.loc 3 37 0
 853 001e 9801      		movw r18,r16
 854 0020 2150      		subi r18,1
 855 0022 3109      		sbc r19,__zero_reg__
 856               	.LVL93:
 857 0024 C20F      		add r28,r18
 858 0026 D31F      		adc r29,r19
 859               	.LVL94:
  44:../tmk_core/protocol/lufa/LUFA-git/LUFA/Drivers/USB/Core/AVR8/Template/Template_Endpoint_RW.c **** 	{
 860               		.loc 3 44 0
 861 0028 C114      		cp r12,__zero_reg__
 862 002a D104      		cpc r13,__zero_reg__
 863 002c 01F0      		breq .L70
  46:../tmk_core/protocol/lufa/LUFA-git/LUFA/Drivers/USB/Core/AVR8/Template/Template_Endpoint_RW.c **** 		TEMPLATE_BUFFER_MOVE(DataStream, *BytesProcessed);
 864               		.loc 3 46 0
 865 002e F601      		movw r30,r12
 866 0030 8081      		ld r24,Z
 867 0032 9181      		ldd r25,Z+1
 868               	.LVL95:
 869 0034 081B      		sub r16,r24
 870 0036 190B      		sbc r17,r25
 871               	.LVL96:
  47:../tmk_core/protocol/lufa/LUFA-git/LUFA/Drivers/USB/Core/AVR8/Template/Template_Endpoint_RW.c **** 	}
 872               		.loc 3 47 0
 873 0038 C81B      		sub r28,r24
 874 003a D90B      		sbc r29,r25
 875               	.LVL97:
 876               	.L70:
  36:../tmk_core/protocol/lufa/LUFA-git/LUFA/Drivers/USB/Core/AVR8/Template/Template_Endpoint_RW.c **** 	uint8_t* DataStream      = ((uint8_t*)Buffer + TEMPLATE_BUFFER_OFFSET(Length));
 877               		.loc 3 36 0
 878 003c E12C      		mov r14,__zero_reg__
 879 003e F12C      		mov r15,__zero_reg__
 880               	.LVL98:
 881               	.L71:
  50:../tmk_core/protocol/lufa/LUFA-git/LUFA/Drivers/USB/Core/AVR8/Template/Template_Endpoint_RW.c **** 	{
 882               		.loc 3 50 0
 883 0040 0115      		cp r16,__zero_reg__
 884 0042 1105      		cpc r17,__zero_reg__
 885 0044 01F0      		breq .L81
 886               	.LBB298:
 887               	.LBB299:
 360:../tmk_core/protocol/lufa/LUFA-git/LUFA/Drivers/USB/Core/AVR8/../AVR8/../AVR8/Endpoint_AVR8.h **** 			}
 888               		.loc 2 360 0
 889 0046 8091 E800 		lds r24,232
 890               	.LBE299:
 891               	.LBE298:
  52:../tmk_core/protocol/lufa/LUFA-git/LUFA/Drivers/USB/Core/AVR8/Template/Template_Endpoint_RW.c **** 		{
 892               		.loc 3 52 0
 893 004a 85FD      		sbrc r24,5
 894 004c 00C0      		rjmp .L72
 895               	.LBB300:
 896               	.LBB301:
 471:../tmk_core/protocol/lufa/LUFA-git/LUFA/Drivers/USB/Core/AVR8/../AVR8/../AVR8/Endpoint_AVR8.h **** 				#else
 897               		.loc 2 471 0
 898 004e 8091 E800 		lds r24,232
 899 0052 8B77      		andi r24,lo8(123)
 900 0054 8093 E800 		sts 232,r24
 901               	.LBE301:
 902               	.LBE300:
  60:../tmk_core/protocol/lufa/LUFA-git/LUFA/Drivers/USB/Core/AVR8/Template/Template_Endpoint_RW.c **** 			{
 903               		.loc 3 60 0
 904 0058 C114      		cp r12,__zero_reg__
 905 005a D104      		cpc r13,__zero_reg__
 906 005c 01F0      		breq .L73
  62:../tmk_core/protocol/lufa/LUFA-git/LUFA/Drivers/USB/Core/AVR8/Template/Template_Endpoint_RW.c **** 				return ENDPOINT_RWSTREAM_IncompleteTransfer;
 907               		.loc 3 62 0
 908 005e F601      		movw r30,r12
 909 0060 8081      		ld r24,Z
 910 0062 9181      		ldd r25,Z+1
 911 0064 E80E      		add r14,r24
 912 0066 F91E      		adc r15,r25
 913               	.LVL99:
 914 0068 F182      		std Z+1,r15
 915 006a E082      		st Z,r14
  63:../tmk_core/protocol/lufa/LUFA-git/LUFA/Drivers/USB/Core/AVR8/Template/Template_Endpoint_RW.c **** 			}
 916               		.loc 3 63 0
 917 006c 85E0      		ldi r24,lo8(5)
 918 006e 00C0      		rjmp .L69
 919               	.LVL100:
 920               	.L73:
  66:../tmk_core/protocol/lufa/LUFA-git/LUFA/Drivers/USB/Core/AVR8/Template/Template_Endpoint_RW.c **** 			  return ErrorCode;
 921               		.loc 3 66 0
 922 0070 0E94 0000 		call Endpoint_WaitUntilReady
 923               	.LVL101:
 924 0074 8823      		tst r24
 925 0076 01F0      		breq .L71
 926 0078 00C0      		rjmp .L69
 927               	.LVL102:
 928               	.L72:
 929               	.LBB302:
 930               	.LBB303:
 542:../tmk_core/protocol/lufa/LUFA-git/LUFA/Drivers/USB/Core/AVR8/../AVR8/../AVR8/Endpoint_AVR8.h **** 			}
 931               		.loc 2 542 0
 932 007a 8091 F100 		lds r24,241
 933               	.LBE303:
 934               	.LBE302:
  71:../tmk_core/protocol/lufa/LUFA-git/LUFA/Drivers/USB/Core/AVR8/Template/Template_Endpoint_RW.c **** 			TEMPLATE_BUFFER_MOVE(DataStream, 1);
 935               		.loc 3 71 0
 936 007e 8883      		st Y,r24
  72:../tmk_core/protocol/lufa/LUFA-git/LUFA/Drivers/USB/Core/AVR8/Template/Template_Endpoint_RW.c **** 			Length--;
 937               		.loc 3 72 0
 938 0080 2197      		sbiw r28,1
 939               	.LVL103:
  73:../tmk_core/protocol/lufa/LUFA-git/LUFA/Drivers/USB/Core/AVR8/Template/Template_Endpoint_RW.c **** 			BytesInTransfer++;
 940               		.loc 3 73 0
 941 0082 0150      		subi r16,1
 942 0084 1109      		sbc r17,__zero_reg__
 943               	.LVL104:
  74:../tmk_core/protocol/lufa/LUFA-git/LUFA/Drivers/USB/Core/AVR8/Template/Template_Endpoint_RW.c **** 		}
 944               		.loc 3 74 0
 945 0086 FFEF      		ldi r31,-1
 946 0088 EF1A      		sub r14,r31
 947 008a FF0A      		sbc r15,r31
 948               	.LVL105:
 949 008c 00C0      		rjmp .L71
 950               	.L81:
  78:../tmk_core/protocol/lufa/LUFA-git/LUFA/Drivers/USB/Core/AVR8/Template/Template_Endpoint_RW.c **** }
 951               		.loc 3 78 0
 952 008e 80E0      		ldi r24,0
 953               	.LVL106:
 954               	.L69:
 955               	/* epilogue start */
 956               		.loc 3 79 0
 957 0090 DF91      		pop r29
 958 0092 CF91      		pop r28
 959 0094 1F91      		pop r17
 960 0096 0F91      		pop r16
 961               	.LVL107:
 962 0098 FF90      		pop r15
 963 009a EF90      		pop r14
 964 009c DF90      		pop r13
 965 009e CF90      		pop r12
 966               	.LVL108:
 967 00a0 0895      		ret
 968               		.cfi_endproc
 969               	.LFE90:
 971               		.section	.text.Endpoint_Write_PStream_LE,"ax",@progbits
 972               	.global	Endpoint_Write_PStream_LE
 974               	Endpoint_Write_PStream_LE:
 975               	.LFB91:
  36:../tmk_core/protocol/lufa/LUFA-git/LUFA/Drivers/USB/Core/AVR8/Template/Template_Endpoint_RW.c **** 	uint8_t* DataStream      = ((uint8_t*)Buffer + TEMPLATE_BUFFER_OFFSET(Length));
 976               		.loc 3 36 0
 977               		.cfi_startproc
 978               	.LVL109:
 979 0000 CF92      		push r12
 980               	.LCFI44:
 981               		.cfi_def_cfa_offset 3
 982               		.cfi_offset 12, -2
 983 0002 DF92      		push r13
 984               	.LCFI45:
 985               		.cfi_def_cfa_offset 4
 986               		.cfi_offset 13, -3
 987 0004 EF92      		push r14
 988               	.LCFI46:
 989               		.cfi_def_cfa_offset 5
 990               		.cfi_offset 14, -4
 991 0006 FF92      		push r15
 992               	.LCFI47:
 993               		.cfi_def_cfa_offset 6
 994               		.cfi_offset 15, -5
 995 0008 0F93      		push r16
 996               	.LCFI48:
 997               		.cfi_def_cfa_offset 7
 998               		.cfi_offset 16, -6
 999 000a 1F93      		push r17
 1000               	.LCFI49:
 1001               		.cfi_def_cfa_offset 8
 1002               		.cfi_offset 17, -7
 1003 000c CF93      		push r28
 1004               	.LCFI50:
 1005               		.cfi_def_cfa_offset 9
 1006               		.cfi_offset 28, -8
 1007 000e DF93      		push r29
 1008               	.LCFI51:
 1009               		.cfi_def_cfa_offset 10
 1010               		.cfi_offset 29, -9
 1011               	/* prologue: function */
 1012               	/* frame size = 0 */
 1013               	/* stack size = 8 */
 1014               	.L__stack_usage = 8
 1015 0010 EC01      		movw r28,r24
 1016 0012 8B01      		movw r16,r22
 1017 0014 6A01      		movw r12,r20
 1018               	.LVL110:
  41:../tmk_core/protocol/lufa/LUFA-git/LUFA/Drivers/USB/Core/AVR8/Template/Template_Endpoint_RW.c **** 	  return ErrorCode;
 1019               		.loc 3 41 0
 1020 0016 0E94 0000 		call Endpoint_WaitUntilReady
 1021               	.LVL111:
 1022 001a 8111      		cpse r24,__zero_reg__
 1023 001c 00C0      		rjmp .L83
  44:../tmk_core/protocol/lufa/LUFA-git/LUFA/Drivers/USB/Core/AVR8/Template/Template_Endpoint_RW.c **** 	{
 1024               		.loc 3 44 0
 1025 001e C114      		cp r12,__zero_reg__
 1026 0020 D104      		cpc r13,__zero_reg__
 1027 0022 01F0      		breq .L84
  46:../tmk_core/protocol/lufa/LUFA-git/LUFA/Drivers/USB/Core/AVR8/Template/Template_Endpoint_RW.c **** 		TEMPLATE_BUFFER_MOVE(DataStream, *BytesProcessed);
 1028               		.loc 3 46 0
 1029 0024 F601      		movw r30,r12
 1030 0026 8081      		ld r24,Z
 1031 0028 9181      		ldd r25,Z+1
 1032               	.LVL112:
 1033 002a 081B      		sub r16,r24
 1034 002c 190B      		sbc r17,r25
 1035               	.LVL113:
  47:../tmk_core/protocol/lufa/LUFA-git/LUFA/Drivers/USB/Core/AVR8/Template/Template_Endpoint_RW.c **** 	}
 1036               		.loc 3 47 0
 1037 002e C80F      		add r28,r24
 1038 0030 D91F      		adc r29,r25
 1039               	.LVL114:
 1040               	.L84:
  37:../tmk_core/protocol/lufa/LUFA-git/LUFA/Drivers/USB/Core/AVR8/Template/Template_Endpoint_RW.c **** 	uint16_t BytesInTransfer = 0;
 1041               		.loc 3 37 0
 1042 0032 E12C      		mov r14,__zero_reg__
 1043 0034 F12C      		mov r15,__zero_reg__
 1044               	.LVL115:
 1045               	.L85:
  50:../tmk_core/protocol/lufa/LUFA-git/LUFA/Drivers/USB/Core/AVR8/Template/Template_Endpoint_RW.c **** 	{
 1046               		.loc 3 50 0
 1047 0036 0115      		cp r16,__zero_reg__
 1048 0038 1105      		cpc r17,__zero_reg__
 1049 003a 01F0      		breq .L93
 1050               	.LBB304:
 1051               	.LBB305:
 360:../tmk_core/protocol/lufa/LUFA-git/LUFA/Drivers/USB/Core/AVR8/../AVR8/../AVR8/Endpoint_AVR8.h **** 			}
 1052               		.loc 2 360 0
 1053 003c 8091 E800 		lds r24,232
 1054               	.LBE305:
 1055               	.LBE304:
  52:../tmk_core/protocol/lufa/LUFA-git/LUFA/Drivers/USB/Core/AVR8/Template/Template_Endpoint_RW.c **** 		{
 1056               		.loc 3 52 0
 1057 0040 85FD      		sbrc r24,5
 1058 0042 00C0      		rjmp .L86
 1059               	.LBB306:
 1060               	.LBB307:
 456:../tmk_core/protocol/lufa/LUFA-git/LUFA/Drivers/USB/Core/AVR8/../AVR8/../AVR8/Endpoint_AVR8.h **** 				#else
 1061               		.loc 2 456 0
 1062 0044 8091 E800 		lds r24,232
 1063 0048 8E77      		andi r24,lo8(126)
 1064 004a 8093 E800 		sts 232,r24
 1065               	.LBE307:
 1066               	.LBE306:
  60:../tmk_core/protocol/lufa/LUFA-git/LUFA/Drivers/USB/Core/AVR8/Template/Template_Endpoint_RW.c **** 			{
 1067               		.loc 3 60 0
 1068 004e C114      		cp r12,__zero_reg__
 1069 0050 D104      		cpc r13,__zero_reg__
 1070 0052 01F0      		breq .L87
  62:../tmk_core/protocol/lufa/LUFA-git/LUFA/Drivers/USB/Core/AVR8/Template/Template_Endpoint_RW.c **** 				return ENDPOINT_RWSTREAM_IncompleteTransfer;
 1071               		.loc 3 62 0
 1072 0054 F601      		movw r30,r12
 1073 0056 8081      		ld r24,Z
 1074 0058 9181      		ldd r25,Z+1
 1075 005a E80E      		add r14,r24
 1076 005c F91E      		adc r15,r25
 1077               	.LVL116:
 1078 005e F182      		std Z+1,r15
 1079 0060 E082      		st Z,r14
  63:../tmk_core/protocol/lufa/LUFA-git/LUFA/Drivers/USB/Core/AVR8/Template/Template_Endpoint_RW.c **** 			}
 1080               		.loc 3 63 0
 1081 0062 85E0      		ldi r24,lo8(5)
 1082 0064 00C0      		rjmp .L83
 1083               	.LVL117:
 1084               	.L87:
  66:../tmk_core/protocol/lufa/LUFA-git/LUFA/Drivers/USB/Core/AVR8/Template/Template_Endpoint_RW.c **** 			  return ErrorCode;
 1085               		.loc 3 66 0
 1086 0066 0E94 0000 		call Endpoint_WaitUntilReady
 1087               	.LVL118:
 1088 006a 8823      		tst r24
 1089 006c 01F0      		breq .L85
 1090 006e 00C0      		rjmp .L83
 1091               	.LVL119:
 1092               	.L86:
 1093               	.LBB308:
  71:../tmk_core/protocol/lufa/LUFA-git/LUFA/Drivers/USB/Core/AVR8/Template/Template_Endpoint_RW.c **** 			TEMPLATE_BUFFER_MOVE(DataStream, 1);
 1094               		.loc 3 71 0
 1095 0070 FE01      		movw r30,r28
 1096               	/* #APP */
 1097               	 ;  71 "../tmk_core/protocol/lufa/LUFA-git/LUFA/Drivers/USB/Core/AVR8/Template/Template_Endpoint_RW
 1098 0072 8491      		lpm r24, Z
 1099               		
 1100               	 ;  0 "" 2
 1101               	.LVL120:
 1102               	/* #NOAPP */
 1103               	.LBE308:
 1104               	.LBB309:
 1105               	.LBB310:
 554:../tmk_core/protocol/lufa/LUFA-git/LUFA/Drivers/USB/Core/AVR8/../AVR8/../AVR8/Endpoint_AVR8.h **** 			}
 1106               		.loc 2 554 0
 1107 0074 8093 F100 		sts 241,r24
 1108               	.LBE310:
 1109               	.LBE309:
  72:../tmk_core/protocol/lufa/LUFA-git/LUFA/Drivers/USB/Core/AVR8/Template/Template_Endpoint_RW.c **** 			Length--;
 1110               		.loc 3 72 0
 1111 0078 2196      		adiw r28,1
 1112               	.LVL121:
  73:../tmk_core/protocol/lufa/LUFA-git/LUFA/Drivers/USB/Core/AVR8/Template/Template_Endpoint_RW.c **** 			BytesInTransfer++;
 1113               		.loc 3 73 0
 1114 007a 0150      		subi r16,1
 1115 007c 1109      		sbc r17,__zero_reg__
 1116               	.LVL122:
  74:../tmk_core/protocol/lufa/LUFA-git/LUFA/Drivers/USB/Core/AVR8/Template/Template_Endpoint_RW.c **** 		}
 1117               		.loc 3 74 0
 1118 007e FFEF      		ldi r31,-1
 1119 0080 EF1A      		sub r14,r31
 1120 0082 FF0A      		sbc r15,r31
 1121               	.LVL123:
 1122 0084 00C0      		rjmp .L85
 1123               	.LVL124:
 1124               	.L93:
  78:../tmk_core/protocol/lufa/LUFA-git/LUFA/Drivers/USB/Core/AVR8/Template/Template_Endpoint_RW.c **** }
 1125               		.loc 3 78 0
 1126 0086 80E0      		ldi r24,0
 1127               	.LVL125:
 1128               	.L83:
 1129               	/* epilogue start */
 1130               		.loc 3 79 0
 1131 0088 DF91      		pop r29
 1132 008a CF91      		pop r28
 1133               	.LVL126:
 1134 008c 1F91      		pop r17
 1135 008e 0F91      		pop r16
 1136               	.LVL127:
 1137 0090 FF90      		pop r15
 1138 0092 EF90      		pop r14
 1139 0094 DF90      		pop r13
 1140 0096 CF90      		pop r12
 1141               	.LVL128:
 1142 0098 0895      		ret
 1143               		.cfi_endproc
 1144               	.LFE91:
 1146               		.section	.text.Endpoint_Write_PStream_BE,"ax",@progbits
 1147               	.global	Endpoint_Write_PStream_BE
 1149               	Endpoint_Write_PStream_BE:
 1150               	.LFB92:
  36:../tmk_core/protocol/lufa/LUFA-git/LUFA/Drivers/USB/Core/AVR8/Template/Template_Endpoint_RW.c **** 	uint8_t* DataStream      = ((uint8_t*)Buffer + TEMPLATE_BUFFER_OFFSET(Length));
 1151               		.loc 3 36 0
 1152               		.cfi_startproc
 1153               	.LVL129:
 1154 0000 CF92      		push r12
 1155               	.LCFI52:
 1156               		.cfi_def_cfa_offset 3
 1157               		.cfi_offset 12, -2
 1158 0002 DF92      		push r13
 1159               	.LCFI53:
 1160               		.cfi_def_cfa_offset 4
 1161               		.cfi_offset 13, -3
 1162 0004 EF92      		push r14
 1163               	.LCFI54:
 1164               		.cfi_def_cfa_offset 5
 1165               		.cfi_offset 14, -4
 1166 0006 FF92      		push r15
 1167               	.LCFI55:
 1168               		.cfi_def_cfa_offset 6
 1169               		.cfi_offset 15, -5
 1170 0008 0F93      		push r16
 1171               	.LCFI56:
 1172               		.cfi_def_cfa_offset 7
 1173               		.cfi_offset 16, -6
 1174 000a 1F93      		push r17
 1175               	.LCFI57:
 1176               		.cfi_def_cfa_offset 8
 1177               		.cfi_offset 17, -7
 1178 000c CF93      		push r28
 1179               	.LCFI58:
 1180               		.cfi_def_cfa_offset 9
 1181               		.cfi_offset 28, -8
 1182 000e DF93      		push r29
 1183               	.LCFI59:
 1184               		.cfi_def_cfa_offset 10
 1185               		.cfi_offset 29, -9
 1186               	/* prologue: function */
 1187               	/* frame size = 0 */
 1188               	/* stack size = 8 */
 1189               	.L__stack_usage = 8
 1190 0010 EC01      		movw r28,r24
 1191 0012 8B01      		movw r16,r22
 1192 0014 6A01      		movw r12,r20
 1193               	.LVL130:
  41:../tmk_core/protocol/lufa/LUFA-git/LUFA/Drivers/USB/Core/AVR8/Template/Template_Endpoint_RW.c **** 	  return ErrorCode;
 1194               		.loc 3 41 0
 1195 0016 0E94 0000 		call Endpoint_WaitUntilReady
 1196               	.LVL131:
 1197 001a 8111      		cpse r24,__zero_reg__
 1198 001c 00C0      		rjmp .L95
  37:../tmk_core/protocol/lufa/LUFA-git/LUFA/Drivers/USB/Core/AVR8/Template/Template_Endpoint_RW.c **** 	uint16_t BytesInTransfer = 0;
 1199               		.loc 3 37 0
 1200 001e 9801      		movw r18,r16
 1201 0020 2150      		subi r18,1
 1202 0022 3109      		sbc r19,__zero_reg__
 1203               	.LVL132:
 1204 0024 C20F      		add r28,r18
 1205 0026 D31F      		adc r29,r19
 1206               	.LVL133:
  44:../tmk_core/protocol/lufa/LUFA-git/LUFA/Drivers/USB/Core/AVR8/Template/Template_Endpoint_RW.c **** 	{
 1207               		.loc 3 44 0
 1208 0028 C114      		cp r12,__zero_reg__
 1209 002a D104      		cpc r13,__zero_reg__
 1210 002c 01F0      		breq .L96
  46:../tmk_core/protocol/lufa/LUFA-git/LUFA/Drivers/USB/Core/AVR8/Template/Template_Endpoint_RW.c **** 		TEMPLATE_BUFFER_MOVE(DataStream, *BytesProcessed);
 1211               		.loc 3 46 0
 1212 002e F601      		movw r30,r12
 1213 0030 8081      		ld r24,Z
 1214 0032 9181      		ldd r25,Z+1
 1215               	.LVL134:
 1216 0034 081B      		sub r16,r24
 1217 0036 190B      		sbc r17,r25
 1218               	.LVL135:
  47:../tmk_core/protocol/lufa/LUFA-git/LUFA/Drivers/USB/Core/AVR8/Template/Template_Endpoint_RW.c **** 	}
 1219               		.loc 3 47 0
 1220 0038 C81B      		sub r28,r24
 1221 003a D90B      		sbc r29,r25
 1222               	.LVL136:
 1223               	.L96:
  36:../tmk_core/protocol/lufa/LUFA-git/LUFA/Drivers/USB/Core/AVR8/Template/Template_Endpoint_RW.c **** 	uint8_t* DataStream      = ((uint8_t*)Buffer + TEMPLATE_BUFFER_OFFSET(Length));
 1224               		.loc 3 36 0
 1225 003c E12C      		mov r14,__zero_reg__
 1226 003e F12C      		mov r15,__zero_reg__
 1227               	.LVL137:
 1228               	.L97:
  50:../tmk_core/protocol/lufa/LUFA-git/LUFA/Drivers/USB/Core/AVR8/Template/Template_Endpoint_RW.c **** 	{
 1229               		.loc 3 50 0
 1230 0040 0115      		cp r16,__zero_reg__
 1231 0042 1105      		cpc r17,__zero_reg__
 1232 0044 01F0      		breq .L107
 1233               	.LBB311:
 1234               	.LBB312:
 360:../tmk_core/protocol/lufa/LUFA-git/LUFA/Drivers/USB/Core/AVR8/../AVR8/../AVR8/Endpoint_AVR8.h **** 			}
 1235               		.loc 2 360 0
 1236 0046 8091 E800 		lds r24,232
 1237               	.LBE312:
 1238               	.LBE311:
  52:../tmk_core/protocol/lufa/LUFA-git/LUFA/Drivers/USB/Core/AVR8/Template/Template_Endpoint_RW.c **** 		{
 1239               		.loc 3 52 0
 1240 004a 85FD      		sbrc r24,5
 1241 004c 00C0      		rjmp .L98
 1242               	.LBB313:
 1243               	.LBB314:
 456:../tmk_core/protocol/lufa/LUFA-git/LUFA/Drivers/USB/Core/AVR8/../AVR8/../AVR8/Endpoint_AVR8.h **** 				#else
 1244               		.loc 2 456 0
 1245 004e 8091 E800 		lds r24,232
 1246 0052 8E77      		andi r24,lo8(126)
 1247 0054 8093 E800 		sts 232,r24
 1248               	.LBE314:
 1249               	.LBE313:
  60:../tmk_core/protocol/lufa/LUFA-git/LUFA/Drivers/USB/Core/AVR8/Template/Template_Endpoint_RW.c **** 			{
 1250               		.loc 3 60 0
 1251 0058 C114      		cp r12,__zero_reg__
 1252 005a D104      		cpc r13,__zero_reg__
 1253 005c 01F0      		breq .L99
  62:../tmk_core/protocol/lufa/LUFA-git/LUFA/Drivers/USB/Core/AVR8/Template/Template_Endpoint_RW.c **** 				return ENDPOINT_RWSTREAM_IncompleteTransfer;
 1254               		.loc 3 62 0
 1255 005e F601      		movw r30,r12
 1256 0060 8081      		ld r24,Z
 1257 0062 9181      		ldd r25,Z+1
 1258 0064 E80E      		add r14,r24
 1259 0066 F91E      		adc r15,r25
 1260               	.LVL138:
 1261 0068 F182      		std Z+1,r15
 1262 006a E082      		st Z,r14
  63:../tmk_core/protocol/lufa/LUFA-git/LUFA/Drivers/USB/Core/AVR8/Template/Template_Endpoint_RW.c **** 			}
 1263               		.loc 3 63 0
 1264 006c 85E0      		ldi r24,lo8(5)
 1265 006e 00C0      		rjmp .L95
 1266               	.LVL139:
 1267               	.L99:
  66:../tmk_core/protocol/lufa/LUFA-git/LUFA/Drivers/USB/Core/AVR8/Template/Template_Endpoint_RW.c **** 			  return ErrorCode;
 1268               		.loc 3 66 0
 1269 0070 0E94 0000 		call Endpoint_WaitUntilReady
 1270               	.LVL140:
 1271 0074 8823      		tst r24
 1272 0076 01F0      		breq .L97
 1273 0078 00C0      		rjmp .L95
 1274               	.LVL141:
 1275               	.L98:
 1276               	.LBB315:
  71:../tmk_core/protocol/lufa/LUFA-git/LUFA/Drivers/USB/Core/AVR8/Template/Template_Endpoint_RW.c **** 			TEMPLATE_BUFFER_MOVE(DataStream, 1);
 1277               		.loc 3 71 0
 1278 007a FE01      		movw r30,r28
 1279               	/* #APP */
 1280               	 ;  71 "../tmk_core/protocol/lufa/LUFA-git/LUFA/Drivers/USB/Core/AVR8/Template/Template_Endpoint_RW
 1281 007c 8491      		lpm r24, Z
 1282               		
 1283               	 ;  0 "" 2
 1284               	.LVL142:
 1285               	/* #NOAPP */
 1286               	.LBE315:
 1287               	.LBB316:
 1288               	.LBB317:
 554:../tmk_core/protocol/lufa/LUFA-git/LUFA/Drivers/USB/Core/AVR8/../AVR8/../AVR8/Endpoint_AVR8.h **** 			}
 1289               		.loc 2 554 0
 1290 007e 8093 F100 		sts 241,r24
 1291               	.LBE317:
 1292               	.LBE316:
  72:../tmk_core/protocol/lufa/LUFA-git/LUFA/Drivers/USB/Core/AVR8/Template/Template_Endpoint_RW.c **** 			Length--;
 1293               		.loc 3 72 0
 1294 0082 2197      		sbiw r28,1
 1295               	.LVL143:
  73:../tmk_core/protocol/lufa/LUFA-git/LUFA/Drivers/USB/Core/AVR8/Template/Template_Endpoint_RW.c **** 			BytesInTransfer++;
 1296               		.loc 3 73 0
 1297 0084 0150      		subi r16,1
 1298 0086 1109      		sbc r17,__zero_reg__
 1299               	.LVL144:
  74:../tmk_core/protocol/lufa/LUFA-git/LUFA/Drivers/USB/Core/AVR8/Template/Template_Endpoint_RW.c **** 		}
 1300               		.loc 3 74 0
 1301 0088 FFEF      		ldi r31,-1
 1302 008a EF1A      		sub r14,r31
 1303 008c FF0A      		sbc r15,r31
 1304               	.LVL145:
 1305 008e 00C0      		rjmp .L97
 1306               	.LVL146:
 1307               	.L107:
  78:../tmk_core/protocol/lufa/LUFA-git/LUFA/Drivers/USB/Core/AVR8/Template/Template_Endpoint_RW.c **** }
 1308               		.loc 3 78 0
 1309 0090 80E0      		ldi r24,0
 1310               	.LVL147:
 1311               	.L95:
 1312               	/* epilogue start */
 1313               		.loc 3 79 0
 1314 0092 DF91      		pop r29
 1315 0094 CF91      		pop r28
 1316 0096 1F91      		pop r17
 1317 0098 0F91      		pop r16
 1318               	.LVL148:
 1319 009a FF90      		pop r15
 1320 009c EF90      		pop r14
 1321 009e DF90      		pop r13
 1322 00a0 CF90      		pop r12
 1323               	.LVL149:
 1324 00a2 0895      		ret
 1325               		.cfi_endproc
 1326               	.LFE92:
 1328               		.section	.text.Endpoint_Write_EStream_LE,"ax",@progbits
 1329               	.global	Endpoint_Write_EStream_LE
 1331               	Endpoint_Write_EStream_LE:
 1332               	.LFB93:
  36:../tmk_core/protocol/lufa/LUFA-git/LUFA/Drivers/USB/Core/AVR8/Template/Template_Endpoint_RW.c **** 	uint8_t* DataStream      = ((uint8_t*)Buffer + TEMPLATE_BUFFER_OFFSET(Length));
 1333               		.loc 3 36 0
 1334               		.cfi_startproc
 1335               	.LVL150:
 1336 0000 CF92      		push r12
 1337               	.LCFI60:
 1338               		.cfi_def_cfa_offset 3
 1339               		.cfi_offset 12, -2
 1340 0002 DF92      		push r13
 1341               	.LCFI61:
 1342               		.cfi_def_cfa_offset 4
 1343               		.cfi_offset 13, -3
 1344 0004 EF92      		push r14
 1345               	.LCFI62:
 1346               		.cfi_def_cfa_offset 5
 1347               		.cfi_offset 14, -4
 1348 0006 FF92      		push r15
 1349               	.LCFI63:
 1350               		.cfi_def_cfa_offset 6
 1351               		.cfi_offset 15, -5
 1352 0008 0F93      		push r16
 1353               	.LCFI64:
 1354               		.cfi_def_cfa_offset 7
 1355               		.cfi_offset 16, -6
 1356 000a 1F93      		push r17
 1357               	.LCFI65:
 1358               		.cfi_def_cfa_offset 8
 1359               		.cfi_offset 17, -7
 1360 000c CF93      		push r28
 1361               	.LCFI66:
 1362               		.cfi_def_cfa_offset 9
 1363               		.cfi_offset 28, -8
 1364 000e DF93      		push r29
 1365               	.LCFI67:
 1366               		.cfi_def_cfa_offset 10
 1367               		.cfi_offset 29, -9
 1368               	/* prologue: function */
 1369               	/* frame size = 0 */
 1370               	/* stack size = 8 */
 1371               	.L__stack_usage = 8
 1372 0010 EC01      		movw r28,r24
 1373 0012 7B01      		movw r14,r22
 1374 0014 8A01      		movw r16,r20
 1375               	.LVL151:
  41:../tmk_core/protocol/lufa/LUFA-git/LUFA/Drivers/USB/Core/AVR8/Template/Template_Endpoint_RW.c **** 	  return ErrorCode;
 1376               		.loc 3 41 0
 1377 0016 0E94 0000 		call Endpoint_WaitUntilReady
 1378               	.LVL152:
 1379 001a 8111      		cpse r24,__zero_reg__
 1380 001c 00C0      		rjmp .L109
  44:../tmk_core/protocol/lufa/LUFA-git/LUFA/Drivers/USB/Core/AVR8/Template/Template_Endpoint_RW.c **** 	{
 1381               		.loc 3 44 0
 1382 001e 0115      		cp r16,__zero_reg__
 1383 0020 1105      		cpc r17,__zero_reg__
 1384 0022 01F0      		breq .L110
  46:../tmk_core/protocol/lufa/LUFA-git/LUFA/Drivers/USB/Core/AVR8/Template/Template_Endpoint_RW.c **** 		TEMPLATE_BUFFER_MOVE(DataStream, *BytesProcessed);
 1385               		.loc 3 46 0
 1386 0024 F801      		movw r30,r16
 1387 0026 8081      		ld r24,Z
 1388 0028 9181      		ldd r25,Z+1
 1389               	.LVL153:
 1390 002a E81A      		sub r14,r24
 1391 002c F90A      		sbc r15,r25
 1392               	.LVL154:
  47:../tmk_core/protocol/lufa/LUFA-git/LUFA/Drivers/USB/Core/AVR8/Template/Template_Endpoint_RW.c **** 	}
 1393               		.loc 3 47 0
 1394 002e C80F      		add r28,r24
 1395 0030 D91F      		adc r29,r25
 1396               	.LVL155:
 1397               	.L110:
  37:../tmk_core/protocol/lufa/LUFA-git/LUFA/Drivers/USB/Core/AVR8/Template/Template_Endpoint_RW.c **** 	uint16_t BytesInTransfer = 0;
 1398               		.loc 3 37 0
 1399 0032 C12C      		mov r12,__zero_reg__
 1400 0034 D12C      		mov r13,__zero_reg__
 1401               	.LVL156:
 1402               	.L111:
  50:../tmk_core/protocol/lufa/LUFA-git/LUFA/Drivers/USB/Core/AVR8/Template/Template_Endpoint_RW.c **** 	{
 1403               		.loc 3 50 0
 1404 0036 E114      		cp r14,__zero_reg__
 1405 0038 F104      		cpc r15,__zero_reg__
 1406 003a 01F0      		breq .L119
 1407               	.LBB318:
 1408               	.LBB319:
 360:../tmk_core/protocol/lufa/LUFA-git/LUFA/Drivers/USB/Core/AVR8/../AVR8/../AVR8/Endpoint_AVR8.h **** 			}
 1409               		.loc 2 360 0
 1410 003c 8091 E800 		lds r24,232
 1411               	.LBE319:
 1412               	.LBE318:
  52:../tmk_core/protocol/lufa/LUFA-git/LUFA/Drivers/USB/Core/AVR8/Template/Template_Endpoint_RW.c **** 		{
 1413               		.loc 3 52 0
 1414 0040 85FD      		sbrc r24,5
 1415 0042 00C0      		rjmp .L112
 1416               	.LBB320:
 1417               	.LBB321:
 456:../tmk_core/protocol/lufa/LUFA-git/LUFA/Drivers/USB/Core/AVR8/../AVR8/../AVR8/Endpoint_AVR8.h **** 				#else
 1418               		.loc 2 456 0
 1419 0044 9091 E800 		lds r25,232
 1420 0048 9E77      		andi r25,lo8(126)
 1421 004a 9093 E800 		sts 232,r25
 1422               	.LBE321:
 1423               	.LBE320:
  60:../tmk_core/protocol/lufa/LUFA-git/LUFA/Drivers/USB/Core/AVR8/Template/Template_Endpoint_RW.c **** 			{
 1424               		.loc 3 60 0
 1425 004e 0115      		cp r16,__zero_reg__
 1426 0050 1105      		cpc r17,__zero_reg__
 1427 0052 01F0      		breq .L113
  62:../tmk_core/protocol/lufa/LUFA-git/LUFA/Drivers/USB/Core/AVR8/Template/Template_Endpoint_RW.c **** 				return ENDPOINT_RWSTREAM_IncompleteTransfer;
 1428               		.loc 3 62 0
 1429 0054 F801      		movw r30,r16
 1430 0056 8081      		ld r24,Z
 1431 0058 9181      		ldd r25,Z+1
 1432 005a 8C0D      		add r24,r12
 1433 005c 9D1D      		adc r25,r13
 1434 005e 9183      		std Z+1,r25
 1435 0060 8083      		st Z,r24
  63:../tmk_core/protocol/lufa/LUFA-git/LUFA/Drivers/USB/Core/AVR8/Template/Template_Endpoint_RW.c **** 			}
 1436               		.loc 3 63 0
 1437 0062 85E0      		ldi r24,lo8(5)
 1438 0064 00C0      		rjmp .L109
 1439               	.L113:
  66:../tmk_core/protocol/lufa/LUFA-git/LUFA/Drivers/USB/Core/AVR8/Template/Template_Endpoint_RW.c **** 			  return ErrorCode;
 1440               		.loc 3 66 0
 1441 0066 0E94 0000 		call Endpoint_WaitUntilReady
 1442               	.LVL157:
 1443 006a 8823      		tst r24
 1444 006c 01F0      		breq .L111
 1445 006e 00C0      		rjmp .L109
 1446               	.LVL158:
 1447               	.L112:
  71:../tmk_core/protocol/lufa/LUFA-git/LUFA/Drivers/USB/Core/AVR8/Template/Template_Endpoint_RW.c **** 			TEMPLATE_BUFFER_MOVE(DataStream, 1);
 1448               		.loc 3 71 0
 1449 0070 CE01      		movw r24,r28
 1450 0072 0E94 0000 		call eeprom_read_byte
 1451               	.LVL159:
 1452               	.LBB322:
 1453               	.LBB323:
 554:../tmk_core/protocol/lufa/LUFA-git/LUFA/Drivers/USB/Core/AVR8/../AVR8/../AVR8/Endpoint_AVR8.h **** 			}
 1454               		.loc 2 554 0
 1455 0076 8093 F100 		sts 241,r24
 1456               	.LBE323:
 1457               	.LBE322:
  72:../tmk_core/protocol/lufa/LUFA-git/LUFA/Drivers/USB/Core/AVR8/Template/Template_Endpoint_RW.c **** 			Length--;
 1458               		.loc 3 72 0
 1459 007a 2196      		adiw r28,1
 1460               	.LVL160:
  73:../tmk_core/protocol/lufa/LUFA-git/LUFA/Drivers/USB/Core/AVR8/Template/Template_Endpoint_RW.c **** 			BytesInTransfer++;
 1461               		.loc 3 73 0
 1462 007c F1E0      		ldi r31,1
 1463 007e EF1A      		sub r14,r31
 1464 0080 F108      		sbc r15,__zero_reg__
 1465               	.LVL161:
  74:../tmk_core/protocol/lufa/LUFA-git/LUFA/Drivers/USB/Core/AVR8/Template/Template_Endpoint_RW.c **** 		}
 1466               		.loc 3 74 0
 1467 0082 8FEF      		ldi r24,-1
 1468 0084 C81A      		sub r12,r24
 1469 0086 D80A      		sbc r13,r24
 1470               	.LVL162:
 1471 0088 00C0      		rjmp .L111
 1472               	.LVL163:
 1473               	.L119:
  78:../tmk_core/protocol/lufa/LUFA-git/LUFA/Drivers/USB/Core/AVR8/Template/Template_Endpoint_RW.c **** }
 1474               		.loc 3 78 0
 1475 008a 80E0      		ldi r24,0
 1476               	.LVL164:
 1477               	.L109:
 1478               	/* epilogue start */
 1479               		.loc 3 79 0
 1480 008c DF91      		pop r29
 1481 008e CF91      		pop r28
 1482               	.LVL165:
 1483 0090 1F91      		pop r17
 1484 0092 0F91      		pop r16
 1485               	.LVL166:
 1486 0094 FF90      		pop r15
 1487 0096 EF90      		pop r14
 1488               	.LVL167:
 1489 0098 DF90      		pop r13
 1490 009a CF90      		pop r12
 1491 009c 0895      		ret
 1492               		.cfi_endproc
 1493               	.LFE93:
 1495               		.section	.text.Endpoint_Write_EStream_BE,"ax",@progbits
 1496               	.global	Endpoint_Write_EStream_BE
 1498               	Endpoint_Write_EStream_BE:
 1499               	.LFB94:
  36:../tmk_core/protocol/lufa/LUFA-git/LUFA/Drivers/USB/Core/AVR8/Template/Template_Endpoint_RW.c **** 	uint8_t* DataStream      = ((uint8_t*)Buffer + TEMPLATE_BUFFER_OFFSET(Length));
 1500               		.loc 3 36 0
 1501               		.cfi_startproc
 1502               	.LVL168:
 1503 0000 CF92      		push r12
 1504               	.LCFI68:
 1505               		.cfi_def_cfa_offset 3
 1506               		.cfi_offset 12, -2
 1507 0002 DF92      		push r13
 1508               	.LCFI69:
 1509               		.cfi_def_cfa_offset 4
 1510               		.cfi_offset 13, -3
 1511 0004 EF92      		push r14
 1512               	.LCFI70:
 1513               		.cfi_def_cfa_offset 5
 1514               		.cfi_offset 14, -4
 1515 0006 FF92      		push r15
 1516               	.LCFI71:
 1517               		.cfi_def_cfa_offset 6
 1518               		.cfi_offset 15, -5
 1519 0008 0F93      		push r16
 1520               	.LCFI72:
 1521               		.cfi_def_cfa_offset 7
 1522               		.cfi_offset 16, -6
 1523 000a 1F93      		push r17
 1524               	.LCFI73:
 1525               		.cfi_def_cfa_offset 8
 1526               		.cfi_offset 17, -7
 1527 000c CF93      		push r28
 1528               	.LCFI74:
 1529               		.cfi_def_cfa_offset 9
 1530               		.cfi_offset 28, -8
 1531 000e DF93      		push r29
 1532               	.LCFI75:
 1533               		.cfi_def_cfa_offset 10
 1534               		.cfi_offset 29, -9
 1535               	/* prologue: function */
 1536               	/* frame size = 0 */
 1537               	/* stack size = 8 */
 1538               	.L__stack_usage = 8
 1539 0010 EC01      		movw r28,r24
 1540 0012 8B01      		movw r16,r22
 1541 0014 7A01      		movw r14,r20
 1542               	.LVL169:
  41:../tmk_core/protocol/lufa/LUFA-git/LUFA/Drivers/USB/Core/AVR8/Template/Template_Endpoint_RW.c **** 	  return ErrorCode;
 1543               		.loc 3 41 0
 1544 0016 0E94 0000 		call Endpoint_WaitUntilReady
 1545               	.LVL170:
 1546 001a 8111      		cpse r24,__zero_reg__
 1547 001c 00C0      		rjmp .L121
  37:../tmk_core/protocol/lufa/LUFA-git/LUFA/Drivers/USB/Core/AVR8/Template/Template_Endpoint_RW.c **** 	uint16_t BytesInTransfer = 0;
 1548               		.loc 3 37 0
 1549 001e 9801      		movw r18,r16
 1550 0020 2150      		subi r18,1
 1551 0022 3109      		sbc r19,__zero_reg__
 1552               	.LVL171:
 1553 0024 C20F      		add r28,r18
 1554 0026 D31F      		adc r29,r19
 1555               	.LVL172:
  44:../tmk_core/protocol/lufa/LUFA-git/LUFA/Drivers/USB/Core/AVR8/Template/Template_Endpoint_RW.c **** 	{
 1556               		.loc 3 44 0
 1557 0028 E114      		cp r14,__zero_reg__
 1558 002a F104      		cpc r15,__zero_reg__
 1559 002c 01F0      		breq .L122
  46:../tmk_core/protocol/lufa/LUFA-git/LUFA/Drivers/USB/Core/AVR8/Template/Template_Endpoint_RW.c **** 		TEMPLATE_BUFFER_MOVE(DataStream, *BytesProcessed);
 1560               		.loc 3 46 0
 1561 002e F701      		movw r30,r14
 1562 0030 8081      		ld r24,Z
 1563 0032 9181      		ldd r25,Z+1
 1564               	.LVL173:
 1565 0034 081B      		sub r16,r24
 1566 0036 190B      		sbc r17,r25
 1567               	.LVL174:
  47:../tmk_core/protocol/lufa/LUFA-git/LUFA/Drivers/USB/Core/AVR8/Template/Template_Endpoint_RW.c **** 	}
 1568               		.loc 3 47 0
 1569 0038 C81B      		sub r28,r24
 1570 003a D90B      		sbc r29,r25
 1571               	.LVL175:
 1572               	.L122:
  36:../tmk_core/protocol/lufa/LUFA-git/LUFA/Drivers/USB/Core/AVR8/Template/Template_Endpoint_RW.c **** 	uint8_t* DataStream      = ((uint8_t*)Buffer + TEMPLATE_BUFFER_OFFSET(Length));
 1573               		.loc 3 36 0
 1574 003c C12C      		mov r12,__zero_reg__
 1575 003e D12C      		mov r13,__zero_reg__
 1576               	.LVL176:
 1577               	.L123:
  50:../tmk_core/protocol/lufa/LUFA-git/LUFA/Drivers/USB/Core/AVR8/Template/Template_Endpoint_RW.c **** 	{
 1578               		.loc 3 50 0
 1579 0040 0115      		cp r16,__zero_reg__
 1580 0042 1105      		cpc r17,__zero_reg__
 1581 0044 01F0      		breq .L133
 1582               	.LBB324:
 1583               	.LBB325:
 360:../tmk_core/protocol/lufa/LUFA-git/LUFA/Drivers/USB/Core/AVR8/../AVR8/../AVR8/Endpoint_AVR8.h **** 			}
 1584               		.loc 2 360 0
 1585 0046 8091 E800 		lds r24,232
 1586               	.LBE325:
 1587               	.LBE324:
  52:../tmk_core/protocol/lufa/LUFA-git/LUFA/Drivers/USB/Core/AVR8/Template/Template_Endpoint_RW.c **** 		{
 1588               		.loc 3 52 0
 1589 004a 85FD      		sbrc r24,5
 1590 004c 00C0      		rjmp .L124
 1591               	.LBB326:
 1592               	.LBB327:
 456:../tmk_core/protocol/lufa/LUFA-git/LUFA/Drivers/USB/Core/AVR8/../AVR8/../AVR8/Endpoint_AVR8.h **** 				#else
 1593               		.loc 2 456 0
 1594 004e 8091 E800 		lds r24,232
 1595 0052 8E77      		andi r24,lo8(126)
 1596 0054 8093 E800 		sts 232,r24
 1597               	.LBE327:
 1598               	.LBE326:
  60:../tmk_core/protocol/lufa/LUFA-git/LUFA/Drivers/USB/Core/AVR8/Template/Template_Endpoint_RW.c **** 			{
 1599               		.loc 3 60 0
 1600 0058 E114      		cp r14,__zero_reg__
 1601 005a F104      		cpc r15,__zero_reg__
 1602 005c 01F0      		breq .L125
  62:../tmk_core/protocol/lufa/LUFA-git/LUFA/Drivers/USB/Core/AVR8/Template/Template_Endpoint_RW.c **** 				return ENDPOINT_RWSTREAM_IncompleteTransfer;
 1603               		.loc 3 62 0
 1604 005e F701      		movw r30,r14
 1605 0060 8081      		ld r24,Z
 1606 0062 9181      		ldd r25,Z+1
 1607 0064 C80E      		add r12,r24
 1608 0066 D91E      		adc r13,r25
 1609               	.LVL177:
 1610 0068 D182      		std Z+1,r13
 1611 006a C082      		st Z,r12
  63:../tmk_core/protocol/lufa/LUFA-git/LUFA/Drivers/USB/Core/AVR8/Template/Template_Endpoint_RW.c **** 			}
 1612               		.loc 3 63 0
 1613 006c 85E0      		ldi r24,lo8(5)
 1614 006e 00C0      		rjmp .L121
 1615               	.LVL178:
 1616               	.L125:
  66:../tmk_core/protocol/lufa/LUFA-git/LUFA/Drivers/USB/Core/AVR8/Template/Template_Endpoint_RW.c **** 			  return ErrorCode;
 1617               		.loc 3 66 0
 1618 0070 0E94 0000 		call Endpoint_WaitUntilReady
 1619               	.LVL179:
 1620 0074 8823      		tst r24
 1621 0076 01F0      		breq .L123
 1622 0078 00C0      		rjmp .L121
 1623               	.LVL180:
 1624               	.L124:
  71:../tmk_core/protocol/lufa/LUFA-git/LUFA/Drivers/USB/Core/AVR8/Template/Template_Endpoint_RW.c **** 			TEMPLATE_BUFFER_MOVE(DataStream, 1);
 1625               		.loc 3 71 0
 1626 007a CE01      		movw r24,r28
 1627 007c 0E94 0000 		call eeprom_read_byte
 1628               	.LVL181:
 1629               	.LBB328:
 1630               	.LBB329:
 554:../tmk_core/protocol/lufa/LUFA-git/LUFA/Drivers/USB/Core/AVR8/../AVR8/../AVR8/Endpoint_AVR8.h **** 			}
 1631               		.loc 2 554 0
 1632 0080 8093 F100 		sts 241,r24
 1633               	.LBE329:
 1634               	.LBE328:
  72:../tmk_core/protocol/lufa/LUFA-git/LUFA/Drivers/USB/Core/AVR8/Template/Template_Endpoint_RW.c **** 			Length--;
 1635               		.loc 3 72 0
 1636 0084 2197      		sbiw r28,1
 1637               	.LVL182:
  73:../tmk_core/protocol/lufa/LUFA-git/LUFA/Drivers/USB/Core/AVR8/Template/Template_Endpoint_RW.c **** 			BytesInTransfer++;
 1638               		.loc 3 73 0
 1639 0086 0150      		subi r16,1
 1640 0088 1109      		sbc r17,__zero_reg__
 1641               	.LVL183:
  74:../tmk_core/protocol/lufa/LUFA-git/LUFA/Drivers/USB/Core/AVR8/Template/Template_Endpoint_RW.c **** 		}
 1642               		.loc 3 74 0
 1643 008a FFEF      		ldi r31,-1
 1644 008c CF1A      		sub r12,r31
 1645 008e DF0A      		sbc r13,r31
 1646               	.LVL184:
 1647 0090 00C0      		rjmp .L123
 1648               	.LVL185:
 1649               	.L133:
  78:../tmk_core/protocol/lufa/LUFA-git/LUFA/Drivers/USB/Core/AVR8/Template/Template_Endpoint_RW.c **** }
 1650               		.loc 3 78 0
 1651 0092 80E0      		ldi r24,0
 1652               	.LVL186:
 1653               	.L121:
 1654               	/* epilogue start */
 1655               		.loc 3 79 0
 1656 0094 DF91      		pop r29
 1657 0096 CF91      		pop r28
 1658 0098 1F91      		pop r17
 1659 009a 0F91      		pop r16
 1660               	.LVL187:
 1661 009c FF90      		pop r15
 1662 009e EF90      		pop r14
 1663               	.LVL188:
 1664 00a0 DF90      		pop r13
 1665 00a2 CF90      		pop r12
 1666 00a4 0895      		ret
 1667               		.cfi_endproc
 1668               	.LFE94:
 1670               		.section	.text.Endpoint_Read_EStream_LE,"ax",@progbits
 1671               	.global	Endpoint_Read_EStream_LE
 1673               	Endpoint_Read_EStream_LE:
 1674               	.LFB95:
  36:../tmk_core/protocol/lufa/LUFA-git/LUFA/Drivers/USB/Core/AVR8/Template/Template_Endpoint_RW.c **** 	uint8_t* DataStream      = ((uint8_t*)Buffer + TEMPLATE_BUFFER_OFFSET(Length));
 1675               		.loc 3 36 0
 1676               		.cfi_startproc
 1677               	.LVL189:
 1678 0000 CF92      		push r12
 1679               	.LCFI76:
 1680               		.cfi_def_cfa_offset 3
 1681               		.cfi_offset 12, -2
 1682 0002 DF92      		push r13
 1683               	.LCFI77:
 1684               		.cfi_def_cfa_offset 4
 1685               		.cfi_offset 13, -3
 1686 0004 EF92      		push r14
 1687               	.LCFI78:
 1688               		.cfi_def_cfa_offset 5
 1689               		.cfi_offset 14, -4
 1690 0006 FF92      		push r15
 1691               	.LCFI79:
 1692               		.cfi_def_cfa_offset 6
 1693               		.cfi_offset 15, -5
 1694 0008 0F93      		push r16
 1695               	.LCFI80:
 1696               		.cfi_def_cfa_offset 7
 1697               		.cfi_offset 16, -6
 1698 000a 1F93      		push r17
 1699               	.LCFI81:
 1700               		.cfi_def_cfa_offset 8
 1701               		.cfi_offset 17, -7
 1702 000c CF93      		push r28
 1703               	.LCFI82:
 1704               		.cfi_def_cfa_offset 9
 1705               		.cfi_offset 28, -8
 1706 000e DF93      		push r29
 1707               	.LCFI83:
 1708               		.cfi_def_cfa_offset 10
 1709               		.cfi_offset 29, -9
 1710               	/* prologue: function */
 1711               	/* frame size = 0 */
 1712               	/* stack size = 8 */
 1713               	.L__stack_usage = 8
 1714 0010 EC01      		movw r28,r24
 1715 0012 7B01      		movw r14,r22
 1716 0014 8A01      		movw r16,r20
 1717               	.LVL190:
  41:../tmk_core/protocol/lufa/LUFA-git/LUFA/Drivers/USB/Core/AVR8/Template/Template_Endpoint_RW.c **** 	  return ErrorCode;
 1718               		.loc 3 41 0
 1719 0016 0E94 0000 		call Endpoint_WaitUntilReady
 1720               	.LVL191:
 1721 001a 8111      		cpse r24,__zero_reg__
 1722 001c 00C0      		rjmp .L135
  44:../tmk_core/protocol/lufa/LUFA-git/LUFA/Drivers/USB/Core/AVR8/Template/Template_Endpoint_RW.c **** 	{
 1723               		.loc 3 44 0
 1724 001e 0115      		cp r16,__zero_reg__
 1725 0020 1105      		cpc r17,__zero_reg__
 1726 0022 01F0      		breq .L136
  46:../tmk_core/protocol/lufa/LUFA-git/LUFA/Drivers/USB/Core/AVR8/Template/Template_Endpoint_RW.c **** 		TEMPLATE_BUFFER_MOVE(DataStream, *BytesProcessed);
 1727               		.loc 3 46 0
 1728 0024 F801      		movw r30,r16
 1729 0026 8081      		ld r24,Z
 1730 0028 9181      		ldd r25,Z+1
 1731               	.LVL192:
 1732 002a E81A      		sub r14,r24
 1733 002c F90A      		sbc r15,r25
 1734               	.LVL193:
  47:../tmk_core/protocol/lufa/LUFA-git/LUFA/Drivers/USB/Core/AVR8/Template/Template_Endpoint_RW.c **** 	}
 1735               		.loc 3 47 0
 1736 002e C80F      		add r28,r24
 1737 0030 D91F      		adc r29,r25
 1738               	.LVL194:
 1739               	.L136:
  37:../tmk_core/protocol/lufa/LUFA-git/LUFA/Drivers/USB/Core/AVR8/Template/Template_Endpoint_RW.c **** 	uint16_t BytesInTransfer = 0;
 1740               		.loc 3 37 0
 1741 0032 C12C      		mov r12,__zero_reg__
 1742 0034 D12C      		mov r13,__zero_reg__
 1743               	.LVL195:
 1744               	.L137:
  50:../tmk_core/protocol/lufa/LUFA-git/LUFA/Drivers/USB/Core/AVR8/Template/Template_Endpoint_RW.c **** 	{
 1745               		.loc 3 50 0
 1746 0036 E114      		cp r14,__zero_reg__
 1747 0038 F104      		cpc r15,__zero_reg__
 1748 003a 01F0      		breq .L145
 1749               	.LBB330:
 1750               	.LBB331:
 360:../tmk_core/protocol/lufa/LUFA-git/LUFA/Drivers/USB/Core/AVR8/../AVR8/../AVR8/Endpoint_AVR8.h **** 			}
 1751               		.loc 2 360 0
 1752 003c 8091 E800 		lds r24,232
 1753               	.LBE331:
 1754               	.LBE330:
  52:../tmk_core/protocol/lufa/LUFA-git/LUFA/Drivers/USB/Core/AVR8/Template/Template_Endpoint_RW.c **** 		{
 1755               		.loc 3 52 0
 1756 0040 85FD      		sbrc r24,5
 1757 0042 00C0      		rjmp .L138
 1758               	.LBB332:
 1759               	.LBB333:
 471:../tmk_core/protocol/lufa/LUFA-git/LUFA/Drivers/USB/Core/AVR8/../AVR8/../AVR8/Endpoint_AVR8.h **** 				#else
 1760               		.loc 2 471 0
 1761 0044 9091 E800 		lds r25,232
 1762 0048 9B77      		andi r25,lo8(123)
 1763 004a 9093 E800 		sts 232,r25
 1764               	.LBE333:
 1765               	.LBE332:
  60:../tmk_core/protocol/lufa/LUFA-git/LUFA/Drivers/USB/Core/AVR8/Template/Template_Endpoint_RW.c **** 			{
 1766               		.loc 3 60 0
 1767 004e 0115      		cp r16,__zero_reg__
 1768 0050 1105      		cpc r17,__zero_reg__
 1769 0052 01F0      		breq .L139
  62:../tmk_core/protocol/lufa/LUFA-git/LUFA/Drivers/USB/Core/AVR8/Template/Template_Endpoint_RW.c **** 				return ENDPOINT_RWSTREAM_IncompleteTransfer;
 1770               		.loc 3 62 0
 1771 0054 F801      		movw r30,r16
 1772 0056 8081      		ld r24,Z
 1773 0058 9181      		ldd r25,Z+1
 1774 005a 8C0D      		add r24,r12
 1775 005c 9D1D      		adc r25,r13
 1776 005e 9183      		std Z+1,r25
 1777 0060 8083      		st Z,r24
  63:../tmk_core/protocol/lufa/LUFA-git/LUFA/Drivers/USB/Core/AVR8/Template/Template_Endpoint_RW.c **** 			}
 1778               		.loc 3 63 0
 1779 0062 85E0      		ldi r24,lo8(5)
 1780 0064 00C0      		rjmp .L135
 1781               	.L139:
  66:../tmk_core/protocol/lufa/LUFA-git/LUFA/Drivers/USB/Core/AVR8/Template/Template_Endpoint_RW.c **** 			  return ErrorCode;
 1782               		.loc 3 66 0
 1783 0066 0E94 0000 		call Endpoint_WaitUntilReady
 1784               	.LVL196:
 1785 006a 8823      		tst r24
 1786 006c 01F0      		breq .L137
 1787 006e 00C0      		rjmp .L135
 1788               	.LVL197:
 1789               	.L138:
 1790               	.LBB334:
 1791               	.LBB335:
 542:../tmk_core/protocol/lufa/LUFA-git/LUFA/Drivers/USB/Core/AVR8/../AVR8/../AVR8/Endpoint_AVR8.h **** 			}
 1792               		.loc 2 542 0
 1793 0070 6091 F100 		lds r22,241
 1794               	.LBE335:
 1795               	.LBE334:
  71:../tmk_core/protocol/lufa/LUFA-git/LUFA/Drivers/USB/Core/AVR8/Template/Template_Endpoint_RW.c **** 			TEMPLATE_BUFFER_MOVE(DataStream, 1);
 1796               		.loc 3 71 0
 1797 0074 CE01      		movw r24,r28
 1798 0076 0E94 0000 		call eeprom_update_byte
 1799               	.LVL198:
  72:../tmk_core/protocol/lufa/LUFA-git/LUFA/Drivers/USB/Core/AVR8/Template/Template_Endpoint_RW.c **** 			Length--;
 1800               		.loc 3 72 0
 1801 007a 2196      		adiw r28,1
 1802               	.LVL199:
  73:../tmk_core/protocol/lufa/LUFA-git/LUFA/Drivers/USB/Core/AVR8/Template/Template_Endpoint_RW.c **** 			BytesInTransfer++;
 1803               		.loc 3 73 0
 1804 007c F1E0      		ldi r31,1
 1805 007e EF1A      		sub r14,r31
 1806 0080 F108      		sbc r15,__zero_reg__
 1807               	.LVL200:
  74:../tmk_core/protocol/lufa/LUFA-git/LUFA/Drivers/USB/Core/AVR8/Template/Template_Endpoint_RW.c **** 		}
 1808               		.loc 3 74 0
 1809 0082 8FEF      		ldi r24,-1
 1810 0084 C81A      		sub r12,r24
 1811 0086 D80A      		sbc r13,r24
 1812               	.LVL201:
 1813 0088 00C0      		rjmp .L137
 1814               	.L145:
  78:../tmk_core/protocol/lufa/LUFA-git/LUFA/Drivers/USB/Core/AVR8/Template/Template_Endpoint_RW.c **** }
 1815               		.loc 3 78 0
 1816 008a 80E0      		ldi r24,0
 1817               	.LVL202:
 1818               	.L135:
 1819               	/* epilogue start */
 1820               		.loc 3 79 0
 1821 008c DF91      		pop r29
 1822 008e CF91      		pop r28
 1823               	.LVL203:
 1824 0090 1F91      		pop r17
 1825 0092 0F91      		pop r16
 1826               	.LVL204:
 1827 0094 FF90      		pop r15
 1828 0096 EF90      		pop r14
 1829               	.LVL205:
 1830 0098 DF90      		pop r13
 1831 009a CF90      		pop r12
 1832 009c 0895      		ret
 1833               		.cfi_endproc
 1834               	.LFE95:
 1836               		.section	.text.Endpoint_Read_EStream_BE,"ax",@progbits
 1837               	.global	Endpoint_Read_EStream_BE
 1839               	Endpoint_Read_EStream_BE:
 1840               	.LFB96:
  36:../tmk_core/protocol/lufa/LUFA-git/LUFA/Drivers/USB/Core/AVR8/Template/Template_Endpoint_RW.c **** 	uint8_t* DataStream      = ((uint8_t*)Buffer + TEMPLATE_BUFFER_OFFSET(Length));
 1841               		.loc 3 36 0
 1842               		.cfi_startproc
 1843               	.LVL206:
 1844 0000 CF92      		push r12
 1845               	.LCFI84:
 1846               		.cfi_def_cfa_offset 3
 1847               		.cfi_offset 12, -2
 1848 0002 DF92      		push r13
 1849               	.LCFI85:
 1850               		.cfi_def_cfa_offset 4
 1851               		.cfi_offset 13, -3
 1852 0004 EF92      		push r14
 1853               	.LCFI86:
 1854               		.cfi_def_cfa_offset 5
 1855               		.cfi_offset 14, -4
 1856 0006 FF92      		push r15
 1857               	.LCFI87:
 1858               		.cfi_def_cfa_offset 6
 1859               		.cfi_offset 15, -5
 1860 0008 0F93      		push r16
 1861               	.LCFI88:
 1862               		.cfi_def_cfa_offset 7
 1863               		.cfi_offset 16, -6
 1864 000a 1F93      		push r17
 1865               	.LCFI89:
 1866               		.cfi_def_cfa_offset 8
 1867               		.cfi_offset 17, -7
 1868 000c CF93      		push r28
 1869               	.LCFI90:
 1870               		.cfi_def_cfa_offset 9
 1871               		.cfi_offset 28, -8
 1872 000e DF93      		push r29
 1873               	.LCFI91:
 1874               		.cfi_def_cfa_offset 10
 1875               		.cfi_offset 29, -9
 1876               	/* prologue: function */
 1877               	/* frame size = 0 */
 1878               	/* stack size = 8 */
 1879               	.L__stack_usage = 8
 1880 0010 EC01      		movw r28,r24
 1881 0012 8B01      		movw r16,r22
 1882 0014 7A01      		movw r14,r20
 1883               	.LVL207:
  41:../tmk_core/protocol/lufa/LUFA-git/LUFA/Drivers/USB/Core/AVR8/Template/Template_Endpoint_RW.c **** 	  return ErrorCode;
 1884               		.loc 3 41 0
 1885 0016 0E94 0000 		call Endpoint_WaitUntilReady
 1886               	.LVL208:
 1887 001a 8111      		cpse r24,__zero_reg__
 1888 001c 00C0      		rjmp .L147
  37:../tmk_core/protocol/lufa/LUFA-git/LUFA/Drivers/USB/Core/AVR8/Template/Template_Endpoint_RW.c **** 	uint16_t BytesInTransfer = 0;
 1889               		.loc 3 37 0
 1890 001e 9801      		movw r18,r16
 1891 0020 2150      		subi r18,1
 1892 0022 3109      		sbc r19,__zero_reg__
 1893               	.LVL209:
 1894 0024 C20F      		add r28,r18
 1895 0026 D31F      		adc r29,r19
 1896               	.LVL210:
  44:../tmk_core/protocol/lufa/LUFA-git/LUFA/Drivers/USB/Core/AVR8/Template/Template_Endpoint_RW.c **** 	{
 1897               		.loc 3 44 0
 1898 0028 E114      		cp r14,__zero_reg__
 1899 002a F104      		cpc r15,__zero_reg__
 1900 002c 01F0      		breq .L148
  46:../tmk_core/protocol/lufa/LUFA-git/LUFA/Drivers/USB/Core/AVR8/Template/Template_Endpoint_RW.c **** 		TEMPLATE_BUFFER_MOVE(DataStream, *BytesProcessed);
 1901               		.loc 3 46 0
 1902 002e F701      		movw r30,r14
 1903 0030 8081      		ld r24,Z
 1904 0032 9181      		ldd r25,Z+1
 1905               	.LVL211:
 1906 0034 081B      		sub r16,r24
 1907 0036 190B      		sbc r17,r25
 1908               	.LVL212:
  47:../tmk_core/protocol/lufa/LUFA-git/LUFA/Drivers/USB/Core/AVR8/Template/Template_Endpoint_RW.c **** 	}
 1909               		.loc 3 47 0
 1910 0038 C81B      		sub r28,r24
 1911 003a D90B      		sbc r29,r25
 1912               	.LVL213:
 1913               	.L148:
  36:../tmk_core/protocol/lufa/LUFA-git/LUFA/Drivers/USB/Core/AVR8/Template/Template_Endpoint_RW.c **** 	uint8_t* DataStream      = ((uint8_t*)Buffer + TEMPLATE_BUFFER_OFFSET(Length));
 1914               		.loc 3 36 0
 1915 003c C12C      		mov r12,__zero_reg__
 1916 003e D12C      		mov r13,__zero_reg__
 1917               	.LVL214:
 1918               	.L149:
  50:../tmk_core/protocol/lufa/LUFA-git/LUFA/Drivers/USB/Core/AVR8/Template/Template_Endpoint_RW.c **** 	{
 1919               		.loc 3 50 0
 1920 0040 0115      		cp r16,__zero_reg__
 1921 0042 1105      		cpc r17,__zero_reg__
 1922 0044 01F0      		breq .L159
 1923               	.LBB336:
 1924               	.LBB337:
 360:../tmk_core/protocol/lufa/LUFA-git/LUFA/Drivers/USB/Core/AVR8/../AVR8/../AVR8/Endpoint_AVR8.h **** 			}
 1925               		.loc 2 360 0
 1926 0046 8091 E800 		lds r24,232
 1927               	.LBE337:
 1928               	.LBE336:
  52:../tmk_core/protocol/lufa/LUFA-git/LUFA/Drivers/USB/Core/AVR8/Template/Template_Endpoint_RW.c **** 		{
 1929               		.loc 3 52 0
 1930 004a 85FD      		sbrc r24,5
 1931 004c 00C0      		rjmp .L150
 1932               	.LBB338:
 1933               	.LBB339:
 471:../tmk_core/protocol/lufa/LUFA-git/LUFA/Drivers/USB/Core/AVR8/../AVR8/../AVR8/Endpoint_AVR8.h **** 				#else
 1934               		.loc 2 471 0
 1935 004e 8091 E800 		lds r24,232
 1936 0052 8B77      		andi r24,lo8(123)
 1937 0054 8093 E800 		sts 232,r24
 1938               	.LBE339:
 1939               	.LBE338:
  60:../tmk_core/protocol/lufa/LUFA-git/LUFA/Drivers/USB/Core/AVR8/Template/Template_Endpoint_RW.c **** 			{
 1940               		.loc 3 60 0
 1941 0058 E114      		cp r14,__zero_reg__
 1942 005a F104      		cpc r15,__zero_reg__
 1943 005c 01F0      		breq .L151
  62:../tmk_core/protocol/lufa/LUFA-git/LUFA/Drivers/USB/Core/AVR8/Template/Template_Endpoint_RW.c **** 				return ENDPOINT_RWSTREAM_IncompleteTransfer;
 1944               		.loc 3 62 0
 1945 005e F701      		movw r30,r14
 1946 0060 8081      		ld r24,Z
 1947 0062 9181      		ldd r25,Z+1
 1948 0064 C80E      		add r12,r24
 1949 0066 D91E      		adc r13,r25
 1950               	.LVL215:
 1951 0068 D182      		std Z+1,r13
 1952 006a C082      		st Z,r12
  63:../tmk_core/protocol/lufa/LUFA-git/LUFA/Drivers/USB/Core/AVR8/Template/Template_Endpoint_RW.c **** 			}
 1953               		.loc 3 63 0
 1954 006c 85E0      		ldi r24,lo8(5)
 1955 006e 00C0      		rjmp .L147
 1956               	.LVL216:
 1957               	.L151:
  66:../tmk_core/protocol/lufa/LUFA-git/LUFA/Drivers/USB/Core/AVR8/Template/Template_Endpoint_RW.c **** 			  return ErrorCode;
 1958               		.loc 3 66 0
 1959 0070 0E94 0000 		call Endpoint_WaitUntilReady
 1960               	.LVL217:
 1961 0074 8823      		tst r24
 1962 0076 01F0      		breq .L149
 1963 0078 00C0      		rjmp .L147
 1964               	.LVL218:
 1965               	.L150:
 1966               	.LBB340:
 1967               	.LBB341:
 542:../tmk_core/protocol/lufa/LUFA-git/LUFA/Drivers/USB/Core/AVR8/../AVR8/../AVR8/Endpoint_AVR8.h **** 			}
 1968               		.loc 2 542 0
 1969 007a 6091 F100 		lds r22,241
 1970               	.LBE341:
 1971               	.LBE340:
  71:../tmk_core/protocol/lufa/LUFA-git/LUFA/Drivers/USB/Core/AVR8/Template/Template_Endpoint_RW.c **** 			TEMPLATE_BUFFER_MOVE(DataStream, 1);
 1972               		.loc 3 71 0
 1973 007e CE01      		movw r24,r28
 1974 0080 0E94 0000 		call eeprom_update_byte
 1975               	.LVL219:
  72:../tmk_core/protocol/lufa/LUFA-git/LUFA/Drivers/USB/Core/AVR8/Template/Template_Endpoint_RW.c **** 			Length--;
 1976               		.loc 3 72 0
 1977 0084 2197      		sbiw r28,1
 1978               	.LVL220:
  73:../tmk_core/protocol/lufa/LUFA-git/LUFA/Drivers/USB/Core/AVR8/Template/Template_Endpoint_RW.c **** 			BytesInTransfer++;
 1979               		.loc 3 73 0
 1980 0086 0150      		subi r16,1
 1981 0088 1109      		sbc r17,__zero_reg__
 1982               	.LVL221:
  74:../tmk_core/protocol/lufa/LUFA-git/LUFA/Drivers/USB/Core/AVR8/Template/Template_Endpoint_RW.c **** 		}
 1983               		.loc 3 74 0
 1984 008a FFEF      		ldi r31,-1
 1985 008c CF1A      		sub r12,r31
 1986 008e DF0A      		sbc r13,r31
 1987               	.LVL222:
 1988 0090 00C0      		rjmp .L149
 1989               	.L159:
  78:../tmk_core/protocol/lufa/LUFA-git/LUFA/Drivers/USB/Core/AVR8/Template/Template_Endpoint_RW.c **** }
 1990               		.loc 3 78 0
 1991 0092 80E0      		ldi r24,0
 1992               	.LVL223:
 1993               	.L147:
 1994               	/* epilogue start */
 1995               		.loc 3 79 0
 1996 0094 DF91      		pop r29
 1997 0096 CF91      		pop r28
 1998 0098 1F91      		pop r17
 1999 009a 0F91      		pop r16
 2000               	.LVL224:
 2001 009c FF90      		pop r15
 2002 009e EF90      		pop r14
 2003               	.LVL225:
 2004 00a0 DF90      		pop r13
 2005 00a2 CF90      		pop r12
 2006 00a4 0895      		ret
 2007               		.cfi_endproc
 2008               	.LFE96:
 2010               		.section	.text.Endpoint_Write_Control_Stream_LE,"ax",@progbits
 2011               	.global	Endpoint_Write_Control_Stream_LE
 2013               	Endpoint_Write_Control_Stream_LE:
 2014               	.LFB97:
 2015               		.file 4 "../tmk_core/protocol/lufa/LUFA-git/LUFA/Drivers/USB/Core/AVR8/Template/Template_Endpoint_
   1:../tmk_core/protocol/lufa/LUFA-git/LUFA/Drivers/USB/Core/AVR8/Template/Template_Endpoint_Control_W.c **** /*
   2:../tmk_core/protocol/lufa/LUFA-git/LUFA/Drivers/USB/Core/AVR8/Template/Template_Endpoint_Control_W.c ****              LUFA Library
   3:../tmk_core/protocol/lufa/LUFA-git/LUFA/Drivers/USB/Core/AVR8/Template/Template_Endpoint_Control_W.c ****      Copyright (C) Dean Camera, 2014.
   4:../tmk_core/protocol/lufa/LUFA-git/LUFA/Drivers/USB/Core/AVR8/Template/Template_Endpoint_Control_W.c **** 
   5:../tmk_core/protocol/lufa/LUFA-git/LUFA/Drivers/USB/Core/AVR8/Template/Template_Endpoint_Control_W.c ****   dean [at] fourwalledcubicle [dot] com
   6:../tmk_core/protocol/lufa/LUFA-git/LUFA/Drivers/USB/Core/AVR8/Template/Template_Endpoint_Control_W.c ****            www.lufa-lib.org
   7:../tmk_core/protocol/lufa/LUFA-git/LUFA/Drivers/USB/Core/AVR8/Template/Template_Endpoint_Control_W.c **** */
   8:../tmk_core/protocol/lufa/LUFA-git/LUFA/Drivers/USB/Core/AVR8/Template/Template_Endpoint_Control_W.c **** 
   9:../tmk_core/protocol/lufa/LUFA-git/LUFA/Drivers/USB/Core/AVR8/Template/Template_Endpoint_Control_W.c **** /*
  10:../tmk_core/protocol/lufa/LUFA-git/LUFA/Drivers/USB/Core/AVR8/Template/Template_Endpoint_Control_W.c ****   Copyright 2014  Dean Camera (dean [at] fourwalledcubicle [dot] com)
  11:../tmk_core/protocol/lufa/LUFA-git/LUFA/Drivers/USB/Core/AVR8/Template/Template_Endpoint_Control_W.c **** 
  12:../tmk_core/protocol/lufa/LUFA-git/LUFA/Drivers/USB/Core/AVR8/Template/Template_Endpoint_Control_W.c ****   Permission to use, copy, modify, distribute, and sell this
  13:../tmk_core/protocol/lufa/LUFA-git/LUFA/Drivers/USB/Core/AVR8/Template/Template_Endpoint_Control_W.c ****   software and its documentation for any purpose is hereby granted
  14:../tmk_core/protocol/lufa/LUFA-git/LUFA/Drivers/USB/Core/AVR8/Template/Template_Endpoint_Control_W.c ****   without fee, provided that the above copyright notice appear in
  15:../tmk_core/protocol/lufa/LUFA-git/LUFA/Drivers/USB/Core/AVR8/Template/Template_Endpoint_Control_W.c ****   all copies and that both that the copyright notice and this
  16:../tmk_core/protocol/lufa/LUFA-git/LUFA/Drivers/USB/Core/AVR8/Template/Template_Endpoint_Control_W.c ****   permission notice and warranty disclaimer appear in supporting
  17:../tmk_core/protocol/lufa/LUFA-git/LUFA/Drivers/USB/Core/AVR8/Template/Template_Endpoint_Control_W.c ****   documentation, and that the name of the author not be used in
  18:../tmk_core/protocol/lufa/LUFA-git/LUFA/Drivers/USB/Core/AVR8/Template/Template_Endpoint_Control_W.c ****   advertising or publicity pertaining to distribution of the
  19:../tmk_core/protocol/lufa/LUFA-git/LUFA/Drivers/USB/Core/AVR8/Template/Template_Endpoint_Control_W.c ****   software without specific, written prior permission.
  20:../tmk_core/protocol/lufa/LUFA-git/LUFA/Drivers/USB/Core/AVR8/Template/Template_Endpoint_Control_W.c **** 
  21:../tmk_core/protocol/lufa/LUFA-git/LUFA/Drivers/USB/Core/AVR8/Template/Template_Endpoint_Control_W.c ****   The author disclaims all warranties with regard to this
  22:../tmk_core/protocol/lufa/LUFA-git/LUFA/Drivers/USB/Core/AVR8/Template/Template_Endpoint_Control_W.c ****   software, including all implied warranties of merchantability
  23:../tmk_core/protocol/lufa/LUFA-git/LUFA/Drivers/USB/Core/AVR8/Template/Template_Endpoint_Control_W.c ****   and fitness.  In no event shall the author be liable for any
  24:../tmk_core/protocol/lufa/LUFA-git/LUFA/Drivers/USB/Core/AVR8/Template/Template_Endpoint_Control_W.c ****   special, indirect or consequential damages or any damages
  25:../tmk_core/protocol/lufa/LUFA-git/LUFA/Drivers/USB/Core/AVR8/Template/Template_Endpoint_Control_W.c ****   whatsoever resulting from loss of use, data or profits, whether
  26:../tmk_core/protocol/lufa/LUFA-git/LUFA/Drivers/USB/Core/AVR8/Template/Template_Endpoint_Control_W.c ****   in an action of contract, negligence or other tortious action,
  27:../tmk_core/protocol/lufa/LUFA-git/LUFA/Drivers/USB/Core/AVR8/Template/Template_Endpoint_Control_W.c ****   arising out of or in connection with the use or performance of
  28:../tmk_core/protocol/lufa/LUFA-git/LUFA/Drivers/USB/Core/AVR8/Template/Template_Endpoint_Control_W.c ****   this software.
  29:../tmk_core/protocol/lufa/LUFA-git/LUFA/Drivers/USB/Core/AVR8/Template/Template_Endpoint_Control_W.c **** */
  30:../tmk_core/protocol/lufa/LUFA-git/LUFA/Drivers/USB/Core/AVR8/Template/Template_Endpoint_Control_W.c **** 
  31:../tmk_core/protocol/lufa/LUFA-git/LUFA/Drivers/USB/Core/AVR8/Template/Template_Endpoint_Control_W.c **** #if defined(TEMPLATE_FUNC_NAME)
  32:../tmk_core/protocol/lufa/LUFA-git/LUFA/Drivers/USB/Core/AVR8/Template/Template_Endpoint_Control_W.c **** 
  33:../tmk_core/protocol/lufa/LUFA-git/LUFA/Drivers/USB/Core/AVR8/Template/Template_Endpoint_Control_W.c **** uint8_t TEMPLATE_FUNC_NAME (const void* const Buffer,
  34:../tmk_core/protocol/lufa/LUFA-git/LUFA/Drivers/USB/Core/AVR8/Template/Template_Endpoint_Control_W.c ****                             uint16_t Length)
  35:../tmk_core/protocol/lufa/LUFA-git/LUFA/Drivers/USB/Core/AVR8/Template/Template_Endpoint_Control_W.c **** {
 2016               		.loc 4 35 0
 2017               		.cfi_startproc
 2018               	.LVL226:
 2019               	/* prologue: function */
 2020               	/* frame size = 0 */
 2021               	/* stack size = 0 */
 2022               	.L__stack_usage = 0
  36:../tmk_core/protocol/lufa/LUFA-git/LUFA/Drivers/USB/Core/AVR8/Template/Template_Endpoint_Control_W.c **** 	uint8_t* DataStream     = ((uint8_t*)Buffer + TEMPLATE_BUFFER_OFFSET(Length));
  37:../tmk_core/protocol/lufa/LUFA-git/LUFA/Drivers/USB/Core/AVR8/Template/Template_Endpoint_Control_W.c **** 	bool     LastPacketFull = false;
  38:../tmk_core/protocol/lufa/LUFA-git/LUFA/Drivers/USB/Core/AVR8/Template/Template_Endpoint_Control_W.c **** 
  39:../tmk_core/protocol/lufa/LUFA-git/LUFA/Drivers/USB/Core/AVR8/Template/Template_Endpoint_Control_W.c **** 	if (Length > USB_ControlRequest.wLength)
 2023               		.loc 4 39 0
 2024 0000 2091 0000 		lds r18,USB_ControlRequest+6
 2025 0004 3091 0000 		lds r19,USB_ControlRequest+6+1
 2026 0008 2617      		cp r18,r22
 2027 000a 3707      		cpc r19,r23
 2028 000c 00F0      		brlo .L172
  40:../tmk_core/protocol/lufa/LUFA-git/LUFA/Drivers/USB/Core/AVR8/Template/Template_Endpoint_Control_W.c **** 	  Length = USB_ControlRequest.wLength;
  41:../tmk_core/protocol/lufa/LUFA-git/LUFA/Drivers/USB/Core/AVR8/Template/Template_Endpoint_Control_W.c **** 	else if (!(Length))
 2029               		.loc 4 41 0
 2030 000e 6115      		cp r22,__zero_reg__
 2031 0010 7105      		cpc r23,__zero_reg__
 2032 0012 01F4      		brne .L161
 2033               	.LBB342:
 2034               	.LBB343:
 456:../tmk_core/protocol/lufa/LUFA-git/LUFA/Drivers/USB/Core/AVR8/../AVR8/../AVR8/Endpoint_AVR8.h **** 				#else
 2035               		.loc 2 456 0
 2036 0014 2091 E800 		lds r18,232
 2037 0018 2E77      		andi r18,lo8(126)
 2038 001a 2093 E800 		sts 232,r18
 2039 001e 00C0      		rjmp .L161
 2040               	.L172:
 2041               	.LBE343:
 2042               	.LBE342:
 2043 0020 B901      		movw r22,r18
 2044               	.LVL227:
 2045               	.L161:
 2046 0022 40E0      		ldi r20,0
 2047               	.LVL228:
 2048               	.L165:
  42:../tmk_core/protocol/lufa/LUFA-git/LUFA/Drivers/USB/Core/AVR8/Template/Template_Endpoint_Control_W.c **** 	  Endpoint_ClearIN();
  43:../tmk_core/protocol/lufa/LUFA-git/LUFA/Drivers/USB/Core/AVR8/Template/Template_Endpoint_Control_W.c **** 
  44:../tmk_core/protocol/lufa/LUFA-git/LUFA/Drivers/USB/Core/AVR8/Template/Template_Endpoint_Control_W.c **** 	while (Length || LastPacketFull)
 2049               		.loc 4 44 0
 2050 0024 6115      		cp r22,__zero_reg__
 2051 0026 7105      		cpc r23,__zero_reg__
 2052 0028 01F0      		breq .L188
 2053               	.L170:
 2054               	.LBB344:
  45:../tmk_core/protocol/lufa/LUFA-git/LUFA/Drivers/USB/Core/AVR8/Template/Template_Endpoint_Control_W.c **** 	{
  46:../tmk_core/protocol/lufa/LUFA-git/LUFA/Drivers/USB/Core/AVR8/Template/Template_Endpoint_Control_W.c **** 		uint8_t USB_DeviceState_LCL = USB_DeviceState;
 2055               		.loc 4 46 0
 2056 002a 2091 0000 		lds r18,USB_DeviceState
 2057               	.LVL229:
  47:../tmk_core/protocol/lufa/LUFA-git/LUFA/Drivers/USB/Core/AVR8/Template/Template_Endpoint_Control_W.c **** 
  48:../tmk_core/protocol/lufa/LUFA-git/LUFA/Drivers/USB/Core/AVR8/Template/Template_Endpoint_Control_W.c **** 		if (USB_DeviceState_LCL == DEVICE_STATE_Unattached)
 2058               		.loc 4 48 0
 2059 002e 2223      		tst r18
 2060 0030 01F4      		brne .+2
 2061 0032 00C0      		rjmp .L176
  49:../tmk_core/protocol/lufa/LUFA-git/LUFA/Drivers/USB/Core/AVR8/Template/Template_Endpoint_Control_W.c **** 		  return ENDPOINT_RWCSTREAM_DeviceDisconnected;
  50:../tmk_core/protocol/lufa/LUFA-git/LUFA/Drivers/USB/Core/AVR8/Template/Template_Endpoint_Control_W.c **** 		else if (USB_DeviceState_LCL == DEVICE_STATE_Suspended)
 2062               		.loc 4 50 0
 2063 0034 2530      		cpi r18,lo8(5)
 2064 0036 01F4      		brne .+2
 2065 0038 00C0      		rjmp .L177
 2066               	.LBB345:
 2067               	.LBB346:
 431:../tmk_core/protocol/lufa/LUFA-git/LUFA/Drivers/USB/Core/AVR8/../AVR8/../AVR8/Endpoint_AVR8.h **** 			}
 2068               		.loc 2 431 0
 2069 003a 2091 E800 		lds r18,232
 2070               	.LVL230:
 2071               	.LBE346:
 2072               	.LBE345:
  51:../tmk_core/protocol/lufa/LUFA-git/LUFA/Drivers/USB/Core/AVR8/Template/Template_Endpoint_Control_W.c **** 		  return ENDPOINT_RWCSTREAM_BusSuspended;
  52:../tmk_core/protocol/lufa/LUFA-git/LUFA/Drivers/USB/Core/AVR8/Template/Template_Endpoint_Control_W.c **** 		else if (Endpoint_IsSETUPReceived())
 2073               		.loc 4 52 0
 2074 003e 23FD      		sbrc r18,3
 2075 0040 00C0      		rjmp .L178
 2076               	.LBB347:
 2077               	.LBB348:
 419:../tmk_core/protocol/lufa/LUFA-git/LUFA/Drivers/USB/Core/AVR8/../AVR8/../AVR8/Endpoint_AVR8.h **** 			}
 2078               		.loc 2 419 0
 2079 0042 2091 E800 		lds r18,232
 2080               	.LBE348:
 2081               	.LBE347:
  53:../tmk_core/protocol/lufa/LUFA-git/LUFA/Drivers/USB/Core/AVR8/Template/Template_Endpoint_Control_W.c **** 		  return ENDPOINT_RWCSTREAM_HostAborted;
  54:../tmk_core/protocol/lufa/LUFA-git/LUFA/Drivers/USB/Core/AVR8/Template/Template_Endpoint_Control_W.c **** 		else if (Endpoint_IsOUTReceived())
 2082               		.loc 4 54 0
 2083 0046 22FD      		sbrc r18,2
 2084 0048 00C0      		rjmp .L184
 2085               	.LBB349:
 2086               	.LBB350:
 407:../tmk_core/protocol/lufa/LUFA-git/LUFA/Drivers/USB/Core/AVR8/../AVR8/../AVR8/Endpoint_AVR8.h **** 			}
 2087               		.loc 2 407 0
 2088 004a 2091 E800 		lds r18,232
 2089               	.LBE350:
 2090               	.LBE349:
  55:../tmk_core/protocol/lufa/LUFA-git/LUFA/Drivers/USB/Core/AVR8/Template/Template_Endpoint_Control_W.c **** 		  break;
  56:../tmk_core/protocol/lufa/LUFA-git/LUFA/Drivers/USB/Core/AVR8/Template/Template_Endpoint_Control_W.c **** 
  57:../tmk_core/protocol/lufa/LUFA-git/LUFA/Drivers/USB/Core/AVR8/Template/Template_Endpoint_Control_W.c **** 		if (Endpoint_IsINReady())
 2091               		.loc 4 57 0
 2092 004e 20FF      		sbrs r18,0
 2093 0050 00C0      		rjmp .L165
 2094               	.LBB351:
 2095               	.LBB352:
 2096               	.LBB353:
 225:../tmk_core/protocol/lufa/LUFA-git/LUFA/Drivers/USB/Core/AVR8/../AVR8/../AVR8/Endpoint_AVR8.h **** 				#elif defined(USB_SERIES_4_AVR)
 2097               		.loc 2 225 0
 2098 0052 2091 F200 		lds r18,242
 2099 0056 3091 F300 		lds r19,242+1
 2100 005a FC01      		movw r30,r24
 2101               	.LVL231:
 2102               	.L166:
 2103 005c CF01      		movw r24,r30
 2104               	.LVL232:
 2105               	.LBE353:
 2106               	.LBE352:
  58:../tmk_core/protocol/lufa/LUFA-git/LUFA/Drivers/USB/Core/AVR8/Template/Template_Endpoint_Control_W.c **** 		{
  59:../tmk_core/protocol/lufa/LUFA-git/LUFA/Drivers/USB/Core/AVR8/Template/Template_Endpoint_Control_W.c **** 			uint16_t BytesInEndpoint = Endpoint_BytesInEndpoint();
  60:../tmk_core/protocol/lufa/LUFA-git/LUFA/Drivers/USB/Core/AVR8/Template/Template_Endpoint_Control_W.c **** 
  61:../tmk_core/protocol/lufa/LUFA-git/LUFA/Drivers/USB/Core/AVR8/Template/Template_Endpoint_Control_W.c **** 			while (Length && (BytesInEndpoint < USB_Device_ControlEndpointSize))
 2107               		.loc 4 61 0
 2108 005e 6115      		cp r22,__zero_reg__
 2109 0060 7105      		cpc r23,__zero_reg__
 2110 0062 01F0      		breq .L167
 2111               		.loc 4 61 0 is_stmt 0 discriminator 1
 2112 0064 2830      		cpi r18,8
 2113 0066 3105      		cpc r19,__zero_reg__
 2114 0068 00F4      		brsh .L167
  62:../tmk_core/protocol/lufa/LUFA-git/LUFA/Drivers/USB/Core/AVR8/Template/Template_Endpoint_Control_W.c **** 			{
  63:../tmk_core/protocol/lufa/LUFA-git/LUFA/Drivers/USB/Core/AVR8/Template/Template_Endpoint_Control_W.c **** 				TEMPLATE_TRANSFER_BYTE(DataStream);
 2115               		.loc 4 63 0 is_stmt 1
 2116 006a 8191      		ld r24,Z+
 2117               	.LVL233:
 2118               	.LBB354:
 2119               	.LBB355:
 554:../tmk_core/protocol/lufa/LUFA-git/LUFA/Drivers/USB/Core/AVR8/../AVR8/../AVR8/Endpoint_AVR8.h **** 			}
 2120               		.loc 2 554 0
 2121 006c 8093 F100 		sts 241,r24
 2122               	.LVL234:
 2123               	.LBE355:
 2124               	.LBE354:
  64:../tmk_core/protocol/lufa/LUFA-git/LUFA/Drivers/USB/Core/AVR8/Template/Template_Endpoint_Control_W.c **** 				TEMPLATE_BUFFER_MOVE(DataStream, 1);
  65:../tmk_core/protocol/lufa/LUFA-git/LUFA/Drivers/USB/Core/AVR8/Template/Template_Endpoint_Control_W.c **** 				Length--;
 2125               		.loc 4 65 0
 2126 0070 6150      		subi r22,1
 2127 0072 7109      		sbc r23,__zero_reg__
 2128               	.LVL235:
  66:../tmk_core/protocol/lufa/LUFA-git/LUFA/Drivers/USB/Core/AVR8/Template/Template_Endpoint_Control_W.c **** 				BytesInEndpoint++;
 2129               		.loc 4 66 0
 2130 0074 2F5F      		subi r18,-1
 2131 0076 3F4F      		sbci r19,-1
 2132               	.LVL236:
 2133 0078 00C0      		rjmp .L166
 2134               	.LVL237:
 2135               	.L167:
  67:../tmk_core/protocol/lufa/LUFA-git/LUFA/Drivers/USB/Core/AVR8/Template/Template_Endpoint_Control_W.c **** 			}
  68:../tmk_core/protocol/lufa/LUFA-git/LUFA/Drivers/USB/Core/AVR8/Template/Template_Endpoint_Control_W.c **** 
  69:../tmk_core/protocol/lufa/LUFA-git/LUFA/Drivers/USB/Core/AVR8/Template/Template_Endpoint_Control_W.c **** 			LastPacketFull = (BytesInEndpoint == USB_Device_ControlEndpointSize);
 2136               		.loc 4 69 0
 2137 007a 41E0      		ldi r20,lo8(1)
 2138               	.LVL238:
 2139 007c 2830      		cpi r18,8
 2140 007e 3105      		cpc r19,__zero_reg__
 2141 0080 01F0      		breq .L169
 2142 0082 40E0      		ldi r20,0
 2143               	.L169:
 2144               	.LVL239:
 2145               	.LBB356:
 2146               	.LBB357:
 456:../tmk_core/protocol/lufa/LUFA-git/LUFA/Drivers/USB/Core/AVR8/../AVR8/../AVR8/Endpoint_AVR8.h **** 				#else
 2147               		.loc 2 456 0
 2148 0084 2091 E800 		lds r18,232
 2149               	.LVL240:
 2150 0088 2E77      		andi r18,lo8(126)
 2151 008a 2093 E800 		sts 232,r18
 2152 008e 00C0      		rjmp .L165
 2153               	.LVL241:
 2154               	.L188:
 2155               	.LBE357:
 2156               	.LBE356:
 2157               	.LBE351:
 2158               	.LBE344:
  44:../tmk_core/protocol/lufa/LUFA-git/LUFA/Drivers/USB/Core/AVR8/Template/Template_Endpoint_Control_W.c **** 	{
 2159               		.loc 4 44 0 discriminator 1
 2160 0090 4111      		cpse r20,__zero_reg__
 2161 0092 00C0      		rjmp .L170
 2162 0094 00C0      		rjmp .L184
 2163               	.LVL242:
 2164               	.L171:
 2165               	.LBB358:
  70:../tmk_core/protocol/lufa/LUFA-git/LUFA/Drivers/USB/Core/AVR8/Template/Template_Endpoint_Control_W.c **** 			Endpoint_ClearIN();
  71:../tmk_core/protocol/lufa/LUFA-git/LUFA/Drivers/USB/Core/AVR8/Template/Template_Endpoint_Control_W.c **** 		}
  72:../tmk_core/protocol/lufa/LUFA-git/LUFA/Drivers/USB/Core/AVR8/Template/Template_Endpoint_Control_W.c **** 	}
  73:../tmk_core/protocol/lufa/LUFA-git/LUFA/Drivers/USB/Core/AVR8/Template/Template_Endpoint_Control_W.c **** 
  74:../tmk_core/protocol/lufa/LUFA-git/LUFA/Drivers/USB/Core/AVR8/Template/Template_Endpoint_Control_W.c **** 	while (!(Endpoint_IsOUTReceived()))
  75:../tmk_core/protocol/lufa/LUFA-git/LUFA/Drivers/USB/Core/AVR8/Template/Template_Endpoint_Control_W.c **** 	{
  76:../tmk_core/protocol/lufa/LUFA-git/LUFA/Drivers/USB/Core/AVR8/Template/Template_Endpoint_Control_W.c **** 		uint8_t USB_DeviceState_LCL = USB_DeviceState;
 2166               		.loc 4 76 0
 2167 0096 8091 0000 		lds r24,USB_DeviceState
 2168               	.LVL243:
  77:../tmk_core/protocol/lufa/LUFA-git/LUFA/Drivers/USB/Core/AVR8/Template/Template_Endpoint_Control_W.c **** 
  78:../tmk_core/protocol/lufa/LUFA-git/LUFA/Drivers/USB/Core/AVR8/Template/Template_Endpoint_Control_W.c **** 		if (USB_DeviceState_LCL == DEVICE_STATE_Unattached)
 2169               		.loc 4 78 0
 2170 009a 8823      		tst r24
 2171 009c 01F0      		breq .L176
  79:../tmk_core/protocol/lufa/LUFA-git/LUFA/Drivers/USB/Core/AVR8/Template/Template_Endpoint_Control_W.c **** 		  return ENDPOINT_RWCSTREAM_DeviceDisconnected;
  80:../tmk_core/protocol/lufa/LUFA-git/LUFA/Drivers/USB/Core/AVR8/Template/Template_Endpoint_Control_W.c **** 		else if (USB_DeviceState_LCL == DEVICE_STATE_Suspended)
 2172               		.loc 4 80 0
 2173 009e 8530      		cpi r24,lo8(5)
 2174 00a0 01F0      		breq .L177
 2175               	.LBB359:
 2176               	.LBB360:
 431:../tmk_core/protocol/lufa/LUFA-git/LUFA/Drivers/USB/Core/AVR8/../AVR8/../AVR8/Endpoint_AVR8.h **** 			}
 2177               		.loc 2 431 0
 2178 00a2 8091 E800 		lds r24,232
 2179               	.LVL244:
 2180               	.LBE360:
 2181               	.LBE359:
  81:../tmk_core/protocol/lufa/LUFA-git/LUFA/Drivers/USB/Core/AVR8/Template/Template_Endpoint_Control_W.c **** 		  return ENDPOINT_RWCSTREAM_BusSuspended;
  82:../tmk_core/protocol/lufa/LUFA-git/LUFA/Drivers/USB/Core/AVR8/Template/Template_Endpoint_Control_W.c **** 		else if (Endpoint_IsSETUPReceived())
 2182               		.loc 4 82 0
 2183 00a6 83FD      		sbrc r24,3
 2184 00a8 00C0      		rjmp .L178
 2185               	.L184:
 2186               	.LBE358:
 2187               	.LBB361:
 2188               	.LBB362:
 419:../tmk_core/protocol/lufa/LUFA-git/LUFA/Drivers/USB/Core/AVR8/../AVR8/../AVR8/Endpoint_AVR8.h **** 			}
 2189               		.loc 2 419 0
 2190 00aa 8091 E800 		lds r24,232
 2191               	.LBE362:
 2192               	.LBE361:
  74:../tmk_core/protocol/lufa/LUFA-git/LUFA/Drivers/USB/Core/AVR8/Template/Template_Endpoint_Control_W.c **** 	{
 2193               		.loc 4 74 0
 2194 00ae 82FF      		sbrs r24,2
 2195 00b0 00C0      		rjmp .L171
  83:../tmk_core/protocol/lufa/LUFA-git/LUFA/Drivers/USB/Core/AVR8/Template/Template_Endpoint_Control_W.c **** 		  return ENDPOINT_RWCSTREAM_HostAborted;
  84:../tmk_core/protocol/lufa/LUFA-git/LUFA/Drivers/USB/Core/AVR8/Template/Template_Endpoint_Control_W.c **** 	}
  85:../tmk_core/protocol/lufa/LUFA-git/LUFA/Drivers/USB/Core/AVR8/Template/Template_Endpoint_Control_W.c **** 
  86:../tmk_core/protocol/lufa/LUFA-git/LUFA/Drivers/USB/Core/AVR8/Template/Template_Endpoint_Control_W.c **** 	return ENDPOINT_RWCSTREAM_NoError;
 2196               		.loc 4 86 0
 2197 00b2 80E0      		ldi r24,0
 2198 00b4 0895      		ret
 2199               	.L176:
 2200               	.LBB363:
  49:../tmk_core/protocol/lufa/LUFA-git/LUFA/Drivers/USB/Core/AVR8/Template/Template_Endpoint_Control_W.c **** 		else if (USB_DeviceState_LCL == DEVICE_STATE_Suspended)
 2201               		.loc 4 49 0
 2202 00b6 82E0      		ldi r24,lo8(2)
 2203 00b8 0895      		ret
 2204               	.L177:
  51:../tmk_core/protocol/lufa/LUFA-git/LUFA/Drivers/USB/Core/AVR8/Template/Template_Endpoint_Control_W.c **** 		else if (Endpoint_IsSETUPReceived())
 2205               		.loc 4 51 0
 2206 00ba 83E0      		ldi r24,lo8(3)
 2207 00bc 0895      		ret
 2208               	.L178:
  53:../tmk_core/protocol/lufa/LUFA-git/LUFA/Drivers/USB/Core/AVR8/Template/Template_Endpoint_Control_W.c **** 		else if (Endpoint_IsOUTReceived())
 2209               		.loc 4 53 0
 2210 00be 81E0      		ldi r24,lo8(1)
 2211               	.LBE363:
  87:../tmk_core/protocol/lufa/LUFA-git/LUFA/Drivers/USB/Core/AVR8/Template/Template_Endpoint_Control_W.c **** }
 2212               		.loc 4 87 0
 2213 00c0 0895      		ret
 2214               		.cfi_endproc
 2215               	.LFE97:
 2217               		.section	.text.Endpoint_Write_Control_Stream_BE,"ax",@progbits
 2218               	.global	Endpoint_Write_Control_Stream_BE
 2220               	Endpoint_Write_Control_Stream_BE:
 2221               	.LFB98:
  35:../tmk_core/protocol/lufa/LUFA-git/LUFA/Drivers/USB/Core/AVR8/Template/Template_Endpoint_Control_W.c **** 	uint8_t* DataStream     = ((uint8_t*)Buffer + TEMPLATE_BUFFER_OFFSET(Length));
 2222               		.loc 4 35 0
 2223               		.cfi_startproc
 2224               	.LVL245:
 2225               	/* prologue: function */
 2226               	/* frame size = 0 */
 2227               	/* stack size = 0 */
 2228               	.L__stack_usage = 0
  36:../tmk_core/protocol/lufa/LUFA-git/LUFA/Drivers/USB/Core/AVR8/Template/Template_Endpoint_Control_W.c **** 	bool     LastPacketFull = false;
 2229               		.loc 4 36 0
 2230 0000 9B01      		movw r18,r22
 2231 0002 2150      		subi r18,1
 2232 0004 3109      		sbc r19,__zero_reg__
 2233 0006 820F      		add r24,r18
 2234 0008 931F      		adc r25,r19
 2235               	.LVL246:
  39:../tmk_core/protocol/lufa/LUFA-git/LUFA/Drivers/USB/Core/AVR8/Template/Template_Endpoint_Control_W.c **** 	  Length = USB_ControlRequest.wLength;
 2236               		.loc 4 39 0
 2237 000a 2091 0000 		lds r18,USB_ControlRequest+6
 2238 000e 3091 0000 		lds r19,USB_ControlRequest+6+1
 2239 0012 2617      		cp r18,r22
 2240 0014 3707      		cpc r19,r23
 2241 0016 00F0      		brlo .L201
  41:../tmk_core/protocol/lufa/LUFA-git/LUFA/Drivers/USB/Core/AVR8/Template/Template_Endpoint_Control_W.c **** 	  Endpoint_ClearIN();
 2242               		.loc 4 41 0
 2243 0018 6115      		cp r22,__zero_reg__
 2244 001a 7105      		cpc r23,__zero_reg__
 2245 001c 01F4      		brne .L190
 2246               	.LBB364:
 2247               	.LBB365:
 456:../tmk_core/protocol/lufa/LUFA-git/LUFA/Drivers/USB/Core/AVR8/../AVR8/../AVR8/Endpoint_AVR8.h **** 				#else
 2248               		.loc 2 456 0
 2249 001e 2091 E800 		lds r18,232
 2250 0022 2E77      		andi r18,lo8(126)
 2251 0024 2093 E800 		sts 232,r18
 2252 0028 00C0      		rjmp .L190
 2253               	.L201:
 2254               	.LBE365:
 2255               	.LBE364:
 2256 002a B901      		movw r22,r18
 2257               	.LVL247:
 2258               	.L190:
 2259 002c 40E0      		ldi r20,0
 2260               	.LVL248:
 2261               	.L194:
  44:../tmk_core/protocol/lufa/LUFA-git/LUFA/Drivers/USB/Core/AVR8/Template/Template_Endpoint_Control_W.c **** 	{
 2262               		.loc 4 44 0
 2263 002e 6115      		cp r22,__zero_reg__
 2264 0030 7105      		cpc r23,__zero_reg__
 2265 0032 01F0      		breq .L217
 2266               	.L199:
 2267               	.LBB366:
  46:../tmk_core/protocol/lufa/LUFA-git/LUFA/Drivers/USB/Core/AVR8/Template/Template_Endpoint_Control_W.c **** 
 2268               		.loc 4 46 0
 2269 0034 2091 0000 		lds r18,USB_DeviceState
 2270               	.LVL249:
  48:../tmk_core/protocol/lufa/LUFA-git/LUFA/Drivers/USB/Core/AVR8/Template/Template_Endpoint_Control_W.c **** 		  return ENDPOINT_RWCSTREAM_DeviceDisconnected;
 2271               		.loc 4 48 0
 2272 0038 2223      		tst r18
 2273 003a 01F4      		brne .+2
 2274 003c 00C0      		rjmp .L205
  50:../tmk_core/protocol/lufa/LUFA-git/LUFA/Drivers/USB/Core/AVR8/Template/Template_Endpoint_Control_W.c **** 		  return ENDPOINT_RWCSTREAM_BusSuspended;
 2275               		.loc 4 50 0
 2276 003e 2530      		cpi r18,lo8(5)
 2277 0040 01F4      		brne .+2
 2278 0042 00C0      		rjmp .L206
 2279               	.LBB367:
 2280               	.LBB368:
 431:../tmk_core/protocol/lufa/LUFA-git/LUFA/Drivers/USB/Core/AVR8/../AVR8/../AVR8/Endpoint_AVR8.h **** 			}
 2281               		.loc 2 431 0
 2282 0044 2091 E800 		lds r18,232
 2283               	.LVL250:
 2284               	.LBE368:
 2285               	.LBE367:
  52:../tmk_core/protocol/lufa/LUFA-git/LUFA/Drivers/USB/Core/AVR8/Template/Template_Endpoint_Control_W.c **** 		  return ENDPOINT_RWCSTREAM_HostAborted;
 2286               		.loc 4 52 0
 2287 0048 23FD      		sbrc r18,3
 2288 004a 00C0      		rjmp .L207
 2289               	.LBB369:
 2290               	.LBB370:
 419:../tmk_core/protocol/lufa/LUFA-git/LUFA/Drivers/USB/Core/AVR8/../AVR8/../AVR8/Endpoint_AVR8.h **** 			}
 2291               		.loc 2 419 0
 2292 004c 2091 E800 		lds r18,232
 2293               	.LBE370:
 2294               	.LBE369:
  54:../tmk_core/protocol/lufa/LUFA-git/LUFA/Drivers/USB/Core/AVR8/Template/Template_Endpoint_Control_W.c **** 		  break;
 2295               		.loc 4 54 0
 2296 0050 22FD      		sbrc r18,2
 2297 0052 00C0      		rjmp .L213
 2298               	.LBB371:
 2299               	.LBB372:
 407:../tmk_core/protocol/lufa/LUFA-git/LUFA/Drivers/USB/Core/AVR8/../AVR8/../AVR8/Endpoint_AVR8.h **** 			}
 2300               		.loc 2 407 0
 2301 0054 2091 E800 		lds r18,232
 2302               	.LBE372:
 2303               	.LBE371:
  57:../tmk_core/protocol/lufa/LUFA-git/LUFA/Drivers/USB/Core/AVR8/Template/Template_Endpoint_Control_W.c **** 		{
 2304               		.loc 4 57 0
 2305 0058 20FF      		sbrs r18,0
 2306 005a 00C0      		rjmp .L194
 2307               	.LBB373:
 2308               	.LBB374:
 2309               	.LBB375:
 225:../tmk_core/protocol/lufa/LUFA-git/LUFA/Drivers/USB/Core/AVR8/../AVR8/../AVR8/Endpoint_AVR8.h **** 				#elif defined(USB_SERIES_4_AVR)
 2310               		.loc 2 225 0
 2311 005c 2091 F200 		lds r18,242
 2312 0060 3091 F300 		lds r19,242+1
 2313               	.LVL251:
 2314               	.L195:
 2315               	.LBE375:
 2316               	.LBE374:
  61:../tmk_core/protocol/lufa/LUFA-git/LUFA/Drivers/USB/Core/AVR8/Template/Template_Endpoint_Control_W.c **** 			{
 2317               		.loc 4 61 0
 2318 0064 6115      		cp r22,__zero_reg__
 2319 0066 7105      		cpc r23,__zero_reg__
 2320 0068 01F0      		breq .L196
  61:../tmk_core/protocol/lufa/LUFA-git/LUFA/Drivers/USB/Core/AVR8/Template/Template_Endpoint_Control_W.c **** 			{
 2321               		.loc 4 61 0 is_stmt 0 discriminator 1
 2322 006a 2830      		cpi r18,8
 2323 006c 3105      		cpc r19,__zero_reg__
 2324 006e 00F4      		brsh .L196
  63:../tmk_core/protocol/lufa/LUFA-git/LUFA/Drivers/USB/Core/AVR8/Template/Template_Endpoint_Control_W.c **** 				TEMPLATE_BUFFER_MOVE(DataStream, 1);
 2325               		.loc 4 63 0 is_stmt 1
 2326 0070 FC01      		movw r30,r24
 2327 0072 4081      		ld r20,Z
 2328               	.LVL252:
 2329               	.LBB376:
 2330               	.LBB377:
 554:../tmk_core/protocol/lufa/LUFA-git/LUFA/Drivers/USB/Core/AVR8/../AVR8/../AVR8/Endpoint_AVR8.h **** 			}
 2331               		.loc 2 554 0
 2332 0074 4093 F100 		sts 241,r20
 2333               	.LBE377:
 2334               	.LBE376:
  64:../tmk_core/protocol/lufa/LUFA-git/LUFA/Drivers/USB/Core/AVR8/Template/Template_Endpoint_Control_W.c **** 				Length--;
 2335               		.loc 4 64 0
 2336 0078 0197      		sbiw r24,1
 2337               	.LVL253:
  65:../tmk_core/protocol/lufa/LUFA-git/LUFA/Drivers/USB/Core/AVR8/Template/Template_Endpoint_Control_W.c **** 				BytesInEndpoint++;
 2338               		.loc 4 65 0
 2339 007a 6150      		subi r22,1
 2340 007c 7109      		sbc r23,__zero_reg__
 2341               	.LVL254:
  66:../tmk_core/protocol/lufa/LUFA-git/LUFA/Drivers/USB/Core/AVR8/Template/Template_Endpoint_Control_W.c **** 			}
 2342               		.loc 4 66 0
 2343 007e 2F5F      		subi r18,-1
 2344 0080 3F4F      		sbci r19,-1
 2345               	.LVL255:
 2346 0082 00C0      		rjmp .L195
 2347               	.LVL256:
 2348               	.L196:
  69:../tmk_core/protocol/lufa/LUFA-git/LUFA/Drivers/USB/Core/AVR8/Template/Template_Endpoint_Control_W.c **** 			Endpoint_ClearIN();
 2349               		.loc 4 69 0
 2350 0084 41E0      		ldi r20,lo8(1)
 2351 0086 2830      		cpi r18,8
 2352 0088 3105      		cpc r19,__zero_reg__
 2353 008a 01F0      		breq .L198
 2354 008c 40E0      		ldi r20,0
 2355               	.L198:
 2356               	.LVL257:
 2357               	.LBB378:
 2358               	.LBB379:
 456:../tmk_core/protocol/lufa/LUFA-git/LUFA/Drivers/USB/Core/AVR8/../AVR8/../AVR8/Endpoint_AVR8.h **** 				#else
 2359               		.loc 2 456 0
 2360 008e 2091 E800 		lds r18,232
 2361               	.LVL258:
 2362 0092 2E77      		andi r18,lo8(126)
 2363 0094 2093 E800 		sts 232,r18
 2364 0098 00C0      		rjmp .L194
 2365               	.L217:
 2366               	.LBE379:
 2367               	.LBE378:
 2368               	.LBE373:
 2369               	.LBE366:
  44:../tmk_core/protocol/lufa/LUFA-git/LUFA/Drivers/USB/Core/AVR8/Template/Template_Endpoint_Control_W.c **** 	{
 2370               		.loc 4 44 0 discriminator 1
 2371 009a 4111      		cpse r20,__zero_reg__
 2372 009c 00C0      		rjmp .L199
 2373 009e 00C0      		rjmp .L213
 2374               	.LVL259:
 2375               	.L200:
 2376               	.LBB380:
  76:../tmk_core/protocol/lufa/LUFA-git/LUFA/Drivers/USB/Core/AVR8/Template/Template_Endpoint_Control_W.c **** 
 2377               		.loc 4 76 0
 2378 00a0 8091 0000 		lds r24,USB_DeviceState
 2379               	.LVL260:
  78:../tmk_core/protocol/lufa/LUFA-git/LUFA/Drivers/USB/Core/AVR8/Template/Template_Endpoint_Control_W.c **** 		  return ENDPOINT_RWCSTREAM_DeviceDisconnected;
 2380               		.loc 4 78 0
 2381 00a4 8823      		tst r24
 2382 00a6 01F0      		breq .L205
  80:../tmk_core/protocol/lufa/LUFA-git/LUFA/Drivers/USB/Core/AVR8/Template/Template_Endpoint_Control_W.c **** 		  return ENDPOINT_RWCSTREAM_BusSuspended;
 2383               		.loc 4 80 0
 2384 00a8 8530      		cpi r24,lo8(5)
 2385 00aa 01F0      		breq .L206
 2386               	.LBB381:
 2387               	.LBB382:
 431:../tmk_core/protocol/lufa/LUFA-git/LUFA/Drivers/USB/Core/AVR8/../AVR8/../AVR8/Endpoint_AVR8.h **** 			}
 2388               		.loc 2 431 0
 2389 00ac 8091 E800 		lds r24,232
 2390               	.LVL261:
 2391               	.LBE382:
 2392               	.LBE381:
  82:../tmk_core/protocol/lufa/LUFA-git/LUFA/Drivers/USB/Core/AVR8/Template/Template_Endpoint_Control_W.c **** 		  return ENDPOINT_RWCSTREAM_HostAborted;
 2393               		.loc 4 82 0
 2394 00b0 83FD      		sbrc r24,3
 2395 00b2 00C0      		rjmp .L207
 2396               	.L213:
 2397               	.LBE380:
 2398               	.LBB383:
 2399               	.LBB384:
 419:../tmk_core/protocol/lufa/LUFA-git/LUFA/Drivers/USB/Core/AVR8/../AVR8/../AVR8/Endpoint_AVR8.h **** 			}
 2400               		.loc 2 419 0
 2401 00b4 8091 E800 		lds r24,232
 2402               	.LBE384:
 2403               	.LBE383:
  74:../tmk_core/protocol/lufa/LUFA-git/LUFA/Drivers/USB/Core/AVR8/Template/Template_Endpoint_Control_W.c **** 	{
 2404               		.loc 4 74 0
 2405 00b8 82FF      		sbrs r24,2
 2406 00ba 00C0      		rjmp .L200
  86:../tmk_core/protocol/lufa/LUFA-git/LUFA/Drivers/USB/Core/AVR8/Template/Template_Endpoint_Control_W.c **** }
 2407               		.loc 4 86 0
 2408 00bc 80E0      		ldi r24,0
 2409 00be 0895      		ret
 2410               	.L205:
 2411               	.LBB385:
  49:../tmk_core/protocol/lufa/LUFA-git/LUFA/Drivers/USB/Core/AVR8/Template/Template_Endpoint_Control_W.c **** 		else if (USB_DeviceState_LCL == DEVICE_STATE_Suspended)
 2412               		.loc 4 49 0
 2413 00c0 82E0      		ldi r24,lo8(2)
 2414 00c2 0895      		ret
 2415               	.L206:
  51:../tmk_core/protocol/lufa/LUFA-git/LUFA/Drivers/USB/Core/AVR8/Template/Template_Endpoint_Control_W.c **** 		else if (Endpoint_IsSETUPReceived())
 2416               		.loc 4 51 0
 2417 00c4 83E0      		ldi r24,lo8(3)
 2418 00c6 0895      		ret
 2419               	.L207:
  53:../tmk_core/protocol/lufa/LUFA-git/LUFA/Drivers/USB/Core/AVR8/Template/Template_Endpoint_Control_W.c **** 		else if (Endpoint_IsOUTReceived())
 2420               		.loc 4 53 0
 2421 00c8 81E0      		ldi r24,lo8(1)
 2422               	.LBE385:
 2423               		.loc 4 87 0
 2424 00ca 0895      		ret
 2425               		.cfi_endproc
 2426               	.LFE98:
 2428               		.section	.text.Endpoint_Read_Control_Stream_LE,"ax",@progbits
 2429               	.global	Endpoint_Read_Control_Stream_LE
 2431               	Endpoint_Read_Control_Stream_LE:
 2432               	.LFB99:
 2433               		.file 5 "../tmk_core/protocol/lufa/LUFA-git/LUFA/Drivers/USB/Core/AVR8/Template/Template_Endpoint_
   1:../tmk_core/protocol/lufa/LUFA-git/LUFA/Drivers/USB/Core/AVR8/Template/Template_Endpoint_Control_R.c **** /*
   2:../tmk_core/protocol/lufa/LUFA-git/LUFA/Drivers/USB/Core/AVR8/Template/Template_Endpoint_Control_R.c ****              LUFA Library
   3:../tmk_core/protocol/lufa/LUFA-git/LUFA/Drivers/USB/Core/AVR8/Template/Template_Endpoint_Control_R.c ****      Copyright (C) Dean Camera, 2014.
   4:../tmk_core/protocol/lufa/LUFA-git/LUFA/Drivers/USB/Core/AVR8/Template/Template_Endpoint_Control_R.c **** 
   5:../tmk_core/protocol/lufa/LUFA-git/LUFA/Drivers/USB/Core/AVR8/Template/Template_Endpoint_Control_R.c ****   dean [at] fourwalledcubicle [dot] com
   6:../tmk_core/protocol/lufa/LUFA-git/LUFA/Drivers/USB/Core/AVR8/Template/Template_Endpoint_Control_R.c ****            www.lufa-lib.org
   7:../tmk_core/protocol/lufa/LUFA-git/LUFA/Drivers/USB/Core/AVR8/Template/Template_Endpoint_Control_R.c **** */
   8:../tmk_core/protocol/lufa/LUFA-git/LUFA/Drivers/USB/Core/AVR8/Template/Template_Endpoint_Control_R.c **** 
   9:../tmk_core/protocol/lufa/LUFA-git/LUFA/Drivers/USB/Core/AVR8/Template/Template_Endpoint_Control_R.c **** /*
  10:../tmk_core/protocol/lufa/LUFA-git/LUFA/Drivers/USB/Core/AVR8/Template/Template_Endpoint_Control_R.c ****   Copyright 2014  Dean Camera (dean [at] fourwalledcubicle [dot] com)
  11:../tmk_core/protocol/lufa/LUFA-git/LUFA/Drivers/USB/Core/AVR8/Template/Template_Endpoint_Control_R.c **** 
  12:../tmk_core/protocol/lufa/LUFA-git/LUFA/Drivers/USB/Core/AVR8/Template/Template_Endpoint_Control_R.c ****   Permission to use, copy, modify, distribute, and sell this
  13:../tmk_core/protocol/lufa/LUFA-git/LUFA/Drivers/USB/Core/AVR8/Template/Template_Endpoint_Control_R.c ****   software and its documentation for any purpose is hereby granted
  14:../tmk_core/protocol/lufa/LUFA-git/LUFA/Drivers/USB/Core/AVR8/Template/Template_Endpoint_Control_R.c ****   without fee, provided that the above copyright notice appear in
  15:../tmk_core/protocol/lufa/LUFA-git/LUFA/Drivers/USB/Core/AVR8/Template/Template_Endpoint_Control_R.c ****   all copies and that both that the copyright notice and this
  16:../tmk_core/protocol/lufa/LUFA-git/LUFA/Drivers/USB/Core/AVR8/Template/Template_Endpoint_Control_R.c ****   permission notice and warranty disclaimer appear in supporting
  17:../tmk_core/protocol/lufa/LUFA-git/LUFA/Drivers/USB/Core/AVR8/Template/Template_Endpoint_Control_R.c ****   documentation, and that the name of the author not be used in
  18:../tmk_core/protocol/lufa/LUFA-git/LUFA/Drivers/USB/Core/AVR8/Template/Template_Endpoint_Control_R.c ****   advertising or publicity pertaining to distribution of the
  19:../tmk_core/protocol/lufa/LUFA-git/LUFA/Drivers/USB/Core/AVR8/Template/Template_Endpoint_Control_R.c ****   software without specific, written prior permission.
  20:../tmk_core/protocol/lufa/LUFA-git/LUFA/Drivers/USB/Core/AVR8/Template/Template_Endpoint_Control_R.c **** 
  21:../tmk_core/protocol/lufa/LUFA-git/LUFA/Drivers/USB/Core/AVR8/Template/Template_Endpoint_Control_R.c ****   The author disclaims all warranties with regard to this
  22:../tmk_core/protocol/lufa/LUFA-git/LUFA/Drivers/USB/Core/AVR8/Template/Template_Endpoint_Control_R.c ****   software, including all implied warranties of merchantability
  23:../tmk_core/protocol/lufa/LUFA-git/LUFA/Drivers/USB/Core/AVR8/Template/Template_Endpoint_Control_R.c ****   and fitness.  In no event shall the author be liable for any
  24:../tmk_core/protocol/lufa/LUFA-git/LUFA/Drivers/USB/Core/AVR8/Template/Template_Endpoint_Control_R.c ****   special, indirect or consequential damages or any damages
  25:../tmk_core/protocol/lufa/LUFA-git/LUFA/Drivers/USB/Core/AVR8/Template/Template_Endpoint_Control_R.c ****   whatsoever resulting from loss of use, data or profits, whether
  26:../tmk_core/protocol/lufa/LUFA-git/LUFA/Drivers/USB/Core/AVR8/Template/Template_Endpoint_Control_R.c ****   in an action of contract, negligence or other tortious action,
  27:../tmk_core/protocol/lufa/LUFA-git/LUFA/Drivers/USB/Core/AVR8/Template/Template_Endpoint_Control_R.c ****   arising out of or in connection with the use or performance of
  28:../tmk_core/protocol/lufa/LUFA-git/LUFA/Drivers/USB/Core/AVR8/Template/Template_Endpoint_Control_R.c ****   this software.
  29:../tmk_core/protocol/lufa/LUFA-git/LUFA/Drivers/USB/Core/AVR8/Template/Template_Endpoint_Control_R.c **** */
  30:../tmk_core/protocol/lufa/LUFA-git/LUFA/Drivers/USB/Core/AVR8/Template/Template_Endpoint_Control_R.c **** 
  31:../tmk_core/protocol/lufa/LUFA-git/LUFA/Drivers/USB/Core/AVR8/Template/Template_Endpoint_Control_R.c **** #if defined(TEMPLATE_FUNC_NAME)
  32:../tmk_core/protocol/lufa/LUFA-git/LUFA/Drivers/USB/Core/AVR8/Template/Template_Endpoint_Control_R.c **** 
  33:../tmk_core/protocol/lufa/LUFA-git/LUFA/Drivers/USB/Core/AVR8/Template/Template_Endpoint_Control_R.c **** uint8_t TEMPLATE_FUNC_NAME (void* const Buffer,
  34:../tmk_core/protocol/lufa/LUFA-git/LUFA/Drivers/USB/Core/AVR8/Template/Template_Endpoint_Control_R.c ****                             uint16_t Length)
  35:../tmk_core/protocol/lufa/LUFA-git/LUFA/Drivers/USB/Core/AVR8/Template/Template_Endpoint_Control_R.c **** {
 2434               		.loc 5 35 0
 2435               		.cfi_startproc
 2436               	.LVL262:
 2437               	/* prologue: function */
 2438               	/* frame size = 0 */
 2439               	/* stack size = 0 */
 2440               	.L__stack_usage = 0
  36:../tmk_core/protocol/lufa/LUFA-git/LUFA/Drivers/USB/Core/AVR8/Template/Template_Endpoint_Control_R.c **** 	uint8_t* DataStream = ((uint8_t*)Buffer + TEMPLATE_BUFFER_OFFSET(Length));
  37:../tmk_core/protocol/lufa/LUFA-git/LUFA/Drivers/USB/Core/AVR8/Template/Template_Endpoint_Control_R.c **** 
  38:../tmk_core/protocol/lufa/LUFA-git/LUFA/Drivers/USB/Core/AVR8/Template/Template_Endpoint_Control_R.c **** 	if (!(Length))
 2441               		.loc 5 38 0
 2442 0000 6115      		cp r22,__zero_reg__
 2443 0002 7105      		cpc r23,__zero_reg__
 2444 0004 01F4      		brne .L219
 2445               	.LBB386:
 2446               	.LBB387:
 471:../tmk_core/protocol/lufa/LUFA-git/LUFA/Drivers/USB/Core/AVR8/../AVR8/../AVR8/Endpoint_AVR8.h **** 				#else
 2447               		.loc 2 471 0
 2448 0006 2091 E800 		lds r18,232
 2449 000a 2B77      		andi r18,lo8(123)
 2450 000c 2093 E800 		sts 232,r18
 2451               	.L219:
 2452               	.LBE387:
 2453               	.LBE386:
  35:../tmk_core/protocol/lufa/LUFA-git/LUFA/Drivers/USB/Core/AVR8/Template/Template_Endpoint_Control_R.c **** 	uint8_t* DataStream = ((uint8_t*)Buffer + TEMPLATE_BUFFER_OFFSET(Length));
 2454               		.loc 5 35 0
 2455 0010 FC01      		movw r30,r24
 2456               	.LVL263:
 2457               	.L223:
  39:../tmk_core/protocol/lufa/LUFA-git/LUFA/Drivers/USB/Core/AVR8/Template/Template_Endpoint_Control_R.c **** 	  Endpoint_ClearOUT();
  40:../tmk_core/protocol/lufa/LUFA-git/LUFA/Drivers/USB/Core/AVR8/Template/Template_Endpoint_Control_R.c **** 
  41:../tmk_core/protocol/lufa/LUFA-git/LUFA/Drivers/USB/Core/AVR8/Template/Template_Endpoint_Control_R.c **** 	while (Length)
 2458               		.loc 5 41 0
 2459 0012 6115      		cp r22,__zero_reg__
 2460 0014 7105      		cpc r23,__zero_reg__
 2461 0016 01F0      		breq .L228
 2462               	.LBB388:
  42:../tmk_core/protocol/lufa/LUFA-git/LUFA/Drivers/USB/Core/AVR8/Template/Template_Endpoint_Control_R.c **** 	{
  43:../tmk_core/protocol/lufa/LUFA-git/LUFA/Drivers/USB/Core/AVR8/Template/Template_Endpoint_Control_R.c **** 		uint8_t USB_DeviceState_LCL = USB_DeviceState;
 2463               		.loc 5 43 0
 2464 0018 8091 0000 		lds r24,USB_DeviceState
 2465               	.LVL264:
  44:../tmk_core/protocol/lufa/LUFA-git/LUFA/Drivers/USB/Core/AVR8/Template/Template_Endpoint_Control_R.c **** 
  45:../tmk_core/protocol/lufa/LUFA-git/LUFA/Drivers/USB/Core/AVR8/Template/Template_Endpoint_Control_R.c **** 		if (USB_DeviceState_LCL == DEVICE_STATE_Unattached)
 2466               		.loc 5 45 0
 2467 001c 8823      		tst r24
 2468 001e 01F0      		breq .L233
  46:../tmk_core/protocol/lufa/LUFA-git/LUFA/Drivers/USB/Core/AVR8/Template/Template_Endpoint_Control_R.c **** 		  return ENDPOINT_RWCSTREAM_DeviceDisconnected;
  47:../tmk_core/protocol/lufa/LUFA-git/LUFA/Drivers/USB/Core/AVR8/Template/Template_Endpoint_Control_R.c **** 		else if (USB_DeviceState_LCL == DEVICE_STATE_Suspended)
 2469               		.loc 5 47 0
 2470 0020 8530      		cpi r24,lo8(5)
 2471 0022 01F0      		breq .L234
 2472               	.LBB389:
 2473               	.LBB390:
 431:../tmk_core/protocol/lufa/LUFA-git/LUFA/Drivers/USB/Core/AVR8/../AVR8/../AVR8/Endpoint_AVR8.h **** 			}
 2474               		.loc 2 431 0
 2475 0024 8091 E800 		lds r24,232
 2476               	.LVL265:
 2477               	.LBE390:
 2478               	.LBE389:
  48:../tmk_core/protocol/lufa/LUFA-git/LUFA/Drivers/USB/Core/AVR8/Template/Template_Endpoint_Control_R.c **** 		  return ENDPOINT_RWCSTREAM_BusSuspended;
  49:../tmk_core/protocol/lufa/LUFA-git/LUFA/Drivers/USB/Core/AVR8/Template/Template_Endpoint_Control_R.c **** 		else if (Endpoint_IsSETUPReceived())
 2479               		.loc 5 49 0
 2480 0028 83FD      		sbrc r24,3
 2481 002a 00C0      		rjmp .L232
 2482               	.LBB391:
 2483               	.LBB392:
 419:../tmk_core/protocol/lufa/LUFA-git/LUFA/Drivers/USB/Core/AVR8/../AVR8/../AVR8/Endpoint_AVR8.h **** 			}
 2484               		.loc 2 419 0
 2485 002c 8091 E800 		lds r24,232
 2486               	.LBE392:
 2487               	.LBE391:
  50:../tmk_core/protocol/lufa/LUFA-git/LUFA/Drivers/USB/Core/AVR8/Template/Template_Endpoint_Control_R.c **** 		  return ENDPOINT_RWCSTREAM_HostAborted;
  51:../tmk_core/protocol/lufa/LUFA-git/LUFA/Drivers/USB/Core/AVR8/Template/Template_Endpoint_Control_R.c **** 
  52:../tmk_core/protocol/lufa/LUFA-git/LUFA/Drivers/USB/Core/AVR8/Template/Template_Endpoint_Control_R.c **** 		if (Endpoint_IsOUTReceived())
 2488               		.loc 5 52 0
 2489 0030 82FF      		sbrs r24,2
 2490 0032 00C0      		rjmp .L223
 2491               	.L224:
 2492               	.LBB393:
 2493               	.LBB394:
 225:../tmk_core/protocol/lufa/LUFA-git/LUFA/Drivers/USB/Core/AVR8/../AVR8/../AVR8/Endpoint_AVR8.h **** 				#elif defined(USB_SERIES_4_AVR)
 2494               		.loc 2 225 0
 2495 0034 8091 F200 		lds r24,242
 2496 0038 9091 F300 		lds r25,242+1
 2497               	.LBE394:
 2498               	.LBE393:
  53:../tmk_core/protocol/lufa/LUFA-git/LUFA/Drivers/USB/Core/AVR8/Template/Template_Endpoint_Control_R.c **** 		{
  54:../tmk_core/protocol/lufa/LUFA-git/LUFA/Drivers/USB/Core/AVR8/Template/Template_Endpoint_Control_R.c **** 			while (Length && Endpoint_BytesInEndpoint())
 2499               		.loc 5 54 0
 2500 003c 892B      		or r24,r25
 2501 003e 01F0      		breq .L225
 2502               	.LBB395:
 2503               	.LBB396:
 542:../tmk_core/protocol/lufa/LUFA-git/LUFA/Drivers/USB/Core/AVR8/../AVR8/../AVR8/Endpoint_AVR8.h **** 			}
 2504               		.loc 2 542 0
 2505 0040 8091 F100 		lds r24,241
 2506               	.LBE396:
 2507               	.LBE395:
  55:../tmk_core/protocol/lufa/LUFA-git/LUFA/Drivers/USB/Core/AVR8/Template/Template_Endpoint_Control_R.c **** 			{
  56:../tmk_core/protocol/lufa/LUFA-git/LUFA/Drivers/USB/Core/AVR8/Template/Template_Endpoint_Control_R.c **** 				TEMPLATE_TRANSFER_BYTE(DataStream);
 2508               		.loc 5 56 0
 2509 0044 8193      		st Z+,r24
 2510               	.LVL266:
  57:../tmk_core/protocol/lufa/LUFA-git/LUFA/Drivers/USB/Core/AVR8/Template/Template_Endpoint_Control_R.c **** 				TEMPLATE_BUFFER_MOVE(DataStream, 1);
  58:../tmk_core/protocol/lufa/LUFA-git/LUFA/Drivers/USB/Core/AVR8/Template/Template_Endpoint_Control_R.c **** 				Length--;
 2511               		.loc 5 58 0
 2512 0046 6150      		subi r22,1
 2513 0048 7109      		sbc r23,__zero_reg__
 2514               	.LVL267:
  54:../tmk_core/protocol/lufa/LUFA-git/LUFA/Drivers/USB/Core/AVR8/Template/Template_Endpoint_Control_R.c **** 			{
 2515               		.loc 5 54 0
 2516 004a 01F4      		brne .L224
 2517               	.L225:
 2518               	.LBB397:
 2519               	.LBB398:
 471:../tmk_core/protocol/lufa/LUFA-git/LUFA/Drivers/USB/Core/AVR8/../AVR8/../AVR8/Endpoint_AVR8.h **** 				#else
 2520               		.loc 2 471 0
 2521 004c 8091 E800 		lds r24,232
 2522 0050 8B77      		andi r24,lo8(123)
 2523 0052 8093 E800 		sts 232,r24
 2524 0056 00C0      		rjmp .L223
 2525               	.L229:
 2526               	.LBE398:
 2527               	.LBE397:
 2528               	.LBE388:
 2529               	.LBB399:
  59:../tmk_core/protocol/lufa/LUFA-git/LUFA/Drivers/USB/Core/AVR8/Template/Template_Endpoint_Control_R.c **** 			}
  60:../tmk_core/protocol/lufa/LUFA-git/LUFA/Drivers/USB/Core/AVR8/Template/Template_Endpoint_Control_R.c **** 
  61:../tmk_core/protocol/lufa/LUFA-git/LUFA/Drivers/USB/Core/AVR8/Template/Template_Endpoint_Control_R.c **** 			Endpoint_ClearOUT();
  62:../tmk_core/protocol/lufa/LUFA-git/LUFA/Drivers/USB/Core/AVR8/Template/Template_Endpoint_Control_R.c **** 		}
  63:../tmk_core/protocol/lufa/LUFA-git/LUFA/Drivers/USB/Core/AVR8/Template/Template_Endpoint_Control_R.c **** 	}
  64:../tmk_core/protocol/lufa/LUFA-git/LUFA/Drivers/USB/Core/AVR8/Template/Template_Endpoint_Control_R.c **** 
  65:../tmk_core/protocol/lufa/LUFA-git/LUFA/Drivers/USB/Core/AVR8/Template/Template_Endpoint_Control_R.c **** 	while (!(Endpoint_IsINReady()))
  66:../tmk_core/protocol/lufa/LUFA-git/LUFA/Drivers/USB/Core/AVR8/Template/Template_Endpoint_Control_R.c **** 	{
  67:../tmk_core/protocol/lufa/LUFA-git/LUFA/Drivers/USB/Core/AVR8/Template/Template_Endpoint_Control_R.c **** 		uint8_t USB_DeviceState_LCL = USB_DeviceState;
 2530               		.loc 5 67 0
 2531 0058 8091 0000 		lds r24,USB_DeviceState
 2532               	.LVL268:
  68:../tmk_core/protocol/lufa/LUFA-git/LUFA/Drivers/USB/Core/AVR8/Template/Template_Endpoint_Control_R.c **** 
  69:../tmk_core/protocol/lufa/LUFA-git/LUFA/Drivers/USB/Core/AVR8/Template/Template_Endpoint_Control_R.c **** 		if (USB_DeviceState_LCL == DEVICE_STATE_Unattached)
 2533               		.loc 5 69 0
 2534 005c 8823      		tst r24
 2535 005e 01F0      		breq .L233
  70:../tmk_core/protocol/lufa/LUFA-git/LUFA/Drivers/USB/Core/AVR8/Template/Template_Endpoint_Control_R.c **** 		  return ENDPOINT_RWCSTREAM_DeviceDisconnected;
  71:../tmk_core/protocol/lufa/LUFA-git/LUFA/Drivers/USB/Core/AVR8/Template/Template_Endpoint_Control_R.c **** 		else if (USB_DeviceState_LCL == DEVICE_STATE_Suspended)
 2536               		.loc 5 71 0
 2537 0060 8530      		cpi r24,lo8(5)
 2538 0062 01F0      		breq .L234
 2539               	.LVL269:
 2540               	.L228:
 2541               	.LBE399:
 2542               	.LBB400:
 2543               	.LBB401:
 407:../tmk_core/protocol/lufa/LUFA-git/LUFA/Drivers/USB/Core/AVR8/../AVR8/../AVR8/Endpoint_AVR8.h **** 			}
 2544               		.loc 2 407 0
 2545 0064 8091 E800 		lds r24,232
 2546               	.LBE401:
 2547               	.LBE400:
  65:../tmk_core/protocol/lufa/LUFA-git/LUFA/Drivers/USB/Core/AVR8/Template/Template_Endpoint_Control_R.c **** 	{
 2548               		.loc 5 65 0
 2549 0068 80FF      		sbrs r24,0
 2550 006a 00C0      		rjmp .L229
  72:../tmk_core/protocol/lufa/LUFA-git/LUFA/Drivers/USB/Core/AVR8/Template/Template_Endpoint_Control_R.c **** 		  return ENDPOINT_RWCSTREAM_BusSuspended;
  73:../tmk_core/protocol/lufa/LUFA-git/LUFA/Drivers/USB/Core/AVR8/Template/Template_Endpoint_Control_R.c **** 	}
  74:../tmk_core/protocol/lufa/LUFA-git/LUFA/Drivers/USB/Core/AVR8/Template/Template_Endpoint_Control_R.c **** 
  75:../tmk_core/protocol/lufa/LUFA-git/LUFA/Drivers/USB/Core/AVR8/Template/Template_Endpoint_Control_R.c **** 	return ENDPOINT_RWCSTREAM_NoError;
 2551               		.loc 5 75 0
 2552 006c 80E0      		ldi r24,0
 2553 006e 0895      		ret
 2554               	.L232:
 2555               	.LBB402:
  50:../tmk_core/protocol/lufa/LUFA-git/LUFA/Drivers/USB/Core/AVR8/Template/Template_Endpoint_Control_R.c **** 
 2556               		.loc 5 50 0
 2557 0070 81E0      		ldi r24,lo8(1)
 2558 0072 0895      		ret
 2559               	.L233:
  46:../tmk_core/protocol/lufa/LUFA-git/LUFA/Drivers/USB/Core/AVR8/Template/Template_Endpoint_Control_R.c **** 		else if (USB_DeviceState_LCL == DEVICE_STATE_Suspended)
 2560               		.loc 5 46 0
 2561 0074 82E0      		ldi r24,lo8(2)
 2562 0076 0895      		ret
 2563               	.L234:
  48:../tmk_core/protocol/lufa/LUFA-git/LUFA/Drivers/USB/Core/AVR8/Template/Template_Endpoint_Control_R.c **** 		else if (Endpoint_IsSETUPReceived())
 2564               		.loc 5 48 0
 2565 0078 83E0      		ldi r24,lo8(3)
 2566               	.LBE402:
  76:../tmk_core/protocol/lufa/LUFA-git/LUFA/Drivers/USB/Core/AVR8/Template/Template_Endpoint_Control_R.c **** }
 2567               		.loc 5 76 0
 2568 007a 0895      		ret
 2569               		.cfi_endproc
 2570               	.LFE99:
 2572               		.section	.text.Endpoint_Read_Control_Stream_BE,"ax",@progbits
 2573               	.global	Endpoint_Read_Control_Stream_BE
 2575               	Endpoint_Read_Control_Stream_BE:
 2576               	.LFB100:
  35:../tmk_core/protocol/lufa/LUFA-git/LUFA/Drivers/USB/Core/AVR8/Template/Template_Endpoint_Control_R.c **** 	uint8_t* DataStream = ((uint8_t*)Buffer + TEMPLATE_BUFFER_OFFSET(Length));
 2577               		.loc 5 35 0
 2578               		.cfi_startproc
 2579               	.LVL270:
 2580               	/* prologue: function */
 2581               	/* frame size = 0 */
 2582               	/* stack size = 0 */
 2583               	.L__stack_usage = 0
  36:../tmk_core/protocol/lufa/LUFA-git/LUFA/Drivers/USB/Core/AVR8/Template/Template_Endpoint_Control_R.c **** 
 2584               		.loc 5 36 0
 2585 0000 9B01      		movw r18,r22
 2586 0002 2150      		subi r18,1
 2587 0004 3109      		sbc r19,__zero_reg__
 2588 0006 820F      		add r24,r18
 2589 0008 931F      		adc r25,r19
 2590               	.LVL271:
  38:../tmk_core/protocol/lufa/LUFA-git/LUFA/Drivers/USB/Core/AVR8/Template/Template_Endpoint_Control_R.c **** 	  Endpoint_ClearOUT();
 2591               		.loc 5 38 0
 2592 000a 6115      		cp r22,__zero_reg__
 2593 000c 7105      		cpc r23,__zero_reg__
 2594 000e 01F4      		brne .L241
 2595               	.L243:
 2596               	.LBB403:
 2597               	.LBB404:
 2598               	.LBB405:
 471:../tmk_core/protocol/lufa/LUFA-git/LUFA/Drivers/USB/Core/AVR8/../AVR8/../AVR8/Endpoint_AVR8.h **** 				#else
 2599               		.loc 2 471 0
 2600 0010 2091 E800 		lds r18,232
 2601 0014 2B77      		andi r18,lo8(123)
 2602 0016 2093 E800 		sts 232,r18
 2603               	.L241:
 2604               	.LBE405:
 2605               	.LBE404:
 2606               	.LBE403:
  41:../tmk_core/protocol/lufa/LUFA-git/LUFA/Drivers/USB/Core/AVR8/Template/Template_Endpoint_Control_R.c **** 	{
 2607               		.loc 5 41 0
 2608 001a 6115      		cp r22,__zero_reg__
 2609 001c 7105      		cpc r23,__zero_reg__
 2610 001e 01F0      		breq .L246
 2611               	.LBB414:
  43:../tmk_core/protocol/lufa/LUFA-git/LUFA/Drivers/USB/Core/AVR8/Template/Template_Endpoint_Control_R.c **** 
 2612               		.loc 5 43 0
 2613 0020 2091 0000 		lds r18,USB_DeviceState
 2614               	.LVL272:
  45:../tmk_core/protocol/lufa/LUFA-git/LUFA/Drivers/USB/Core/AVR8/Template/Template_Endpoint_Control_R.c **** 		  return ENDPOINT_RWCSTREAM_DeviceDisconnected;
 2615               		.loc 5 45 0
 2616 0024 2223      		tst r18
 2617 0026 01F0      		breq .L251
  47:../tmk_core/protocol/lufa/LUFA-git/LUFA/Drivers/USB/Core/AVR8/Template/Template_Endpoint_Control_R.c **** 		  return ENDPOINT_RWCSTREAM_BusSuspended;
 2618               		.loc 5 47 0
 2619 0028 2530      		cpi r18,lo8(5)
 2620 002a 01F0      		breq .L252
 2621               	.LBB406:
 2622               	.LBB407:
 431:../tmk_core/protocol/lufa/LUFA-git/LUFA/Drivers/USB/Core/AVR8/../AVR8/../AVR8/Endpoint_AVR8.h **** 			}
 2623               		.loc 2 431 0
 2624 002c 2091 E800 		lds r18,232
 2625               	.LVL273:
 2626               	.LBE407:
 2627               	.LBE406:
  49:../tmk_core/protocol/lufa/LUFA-git/LUFA/Drivers/USB/Core/AVR8/Template/Template_Endpoint_Control_R.c **** 		  return ENDPOINT_RWCSTREAM_HostAborted;
 2628               		.loc 5 49 0
 2629 0030 23FD      		sbrc r18,3
 2630 0032 00C0      		rjmp .L250
 2631               	.LBB408:
 2632               	.LBB409:
 419:../tmk_core/protocol/lufa/LUFA-git/LUFA/Drivers/USB/Core/AVR8/../AVR8/../AVR8/Endpoint_AVR8.h **** 			}
 2633               		.loc 2 419 0
 2634 0034 2091 E800 		lds r18,232
 2635               	.LBE409:
 2636               	.LBE408:
  52:../tmk_core/protocol/lufa/LUFA-git/LUFA/Drivers/USB/Core/AVR8/Template/Template_Endpoint_Control_R.c **** 		{
 2637               		.loc 5 52 0
 2638 0038 22FF      		sbrs r18,2
 2639 003a 00C0      		rjmp .L241
 2640               	.L242:
 2641               	.LBB410:
 2642               	.LBB411:
 225:../tmk_core/protocol/lufa/LUFA-git/LUFA/Drivers/USB/Core/AVR8/../AVR8/../AVR8/Endpoint_AVR8.h **** 				#elif defined(USB_SERIES_4_AVR)
 2643               		.loc 2 225 0
 2644 003c 2091 F200 		lds r18,242
 2645 0040 3091 F300 		lds r19,242+1
 2646               	.LBE411:
 2647               	.LBE410:
  54:../tmk_core/protocol/lufa/LUFA-git/LUFA/Drivers/USB/Core/AVR8/Template/Template_Endpoint_Control_R.c **** 			{
 2648               		.loc 5 54 0
 2649 0044 232B      		or r18,r19
 2650 0046 01F0      		breq .L243
 2651               	.LBB412:
 2652               	.LBB413:
 542:../tmk_core/protocol/lufa/LUFA-git/LUFA/Drivers/USB/Core/AVR8/../AVR8/../AVR8/Endpoint_AVR8.h **** 			}
 2653               		.loc 2 542 0
 2654 0048 2091 F100 		lds r18,241
 2655               	.LBE413:
 2656               	.LBE412:
  56:../tmk_core/protocol/lufa/LUFA-git/LUFA/Drivers/USB/Core/AVR8/Template/Template_Endpoint_Control_R.c **** 				TEMPLATE_BUFFER_MOVE(DataStream, 1);
 2657               		.loc 5 56 0
 2658 004c FC01      		movw r30,r24
 2659 004e 2083      		st Z,r18
  57:../tmk_core/protocol/lufa/LUFA-git/LUFA/Drivers/USB/Core/AVR8/Template/Template_Endpoint_Control_R.c **** 				Length--;
 2660               		.loc 5 57 0
 2661 0050 0197      		sbiw r24,1
 2662               	.LVL274:
  58:../tmk_core/protocol/lufa/LUFA-git/LUFA/Drivers/USB/Core/AVR8/Template/Template_Endpoint_Control_R.c **** 			}
 2663               		.loc 5 58 0
 2664 0052 6150      		subi r22,1
 2665 0054 7109      		sbc r23,__zero_reg__
 2666               	.LVL275:
  54:../tmk_core/protocol/lufa/LUFA-git/LUFA/Drivers/USB/Core/AVR8/Template/Template_Endpoint_Control_R.c **** 			{
 2667               		.loc 5 54 0
 2668 0056 01F4      		brne .L242
 2669 0058 00C0      		rjmp .L243
 2670               	.LVL276:
 2671               	.L247:
 2672               	.LBE414:
 2673               	.LBB415:
  67:../tmk_core/protocol/lufa/LUFA-git/LUFA/Drivers/USB/Core/AVR8/Template/Template_Endpoint_Control_R.c **** 
 2674               		.loc 5 67 0
 2675 005a 8091 0000 		lds r24,USB_DeviceState
 2676               	.LVL277:
  69:../tmk_core/protocol/lufa/LUFA-git/LUFA/Drivers/USB/Core/AVR8/Template/Template_Endpoint_Control_R.c **** 		  return ENDPOINT_RWCSTREAM_DeviceDisconnected;
 2677               		.loc 5 69 0
 2678 005e 8823      		tst r24
 2679 0060 01F0      		breq .L251
  71:../tmk_core/protocol/lufa/LUFA-git/LUFA/Drivers/USB/Core/AVR8/Template/Template_Endpoint_Control_R.c **** 		  return ENDPOINT_RWCSTREAM_BusSuspended;
 2680               		.loc 5 71 0
 2681 0062 8530      		cpi r24,lo8(5)
 2682 0064 01F0      		breq .L252
 2683               	.LVL278:
 2684               	.L246:
 2685               	.LBE415:
 2686               	.LBB416:
 2687               	.LBB417:
 407:../tmk_core/protocol/lufa/LUFA-git/LUFA/Drivers/USB/Core/AVR8/../AVR8/../AVR8/Endpoint_AVR8.h **** 			}
 2688               		.loc 2 407 0
 2689 0066 8091 E800 		lds r24,232
 2690               	.LBE417:
 2691               	.LBE416:
  65:../tmk_core/protocol/lufa/LUFA-git/LUFA/Drivers/USB/Core/AVR8/Template/Template_Endpoint_Control_R.c **** 	{
 2692               		.loc 5 65 0
 2693 006a 80FF      		sbrs r24,0
 2694 006c 00C0      		rjmp .L247
  75:../tmk_core/protocol/lufa/LUFA-git/LUFA/Drivers/USB/Core/AVR8/Template/Template_Endpoint_Control_R.c **** }
 2695               		.loc 5 75 0
 2696 006e 80E0      		ldi r24,0
 2697 0070 0895      		ret
 2698               	.LVL279:
 2699               	.L250:
 2700               	.LBB418:
  50:../tmk_core/protocol/lufa/LUFA-git/LUFA/Drivers/USB/Core/AVR8/Template/Template_Endpoint_Control_R.c **** 
 2701               		.loc 5 50 0
 2702 0072 81E0      		ldi r24,lo8(1)
 2703               	.LVL280:
 2704 0074 0895      		ret
 2705               	.L251:
  46:../tmk_core/protocol/lufa/LUFA-git/LUFA/Drivers/USB/Core/AVR8/Template/Template_Endpoint_Control_R.c **** 		else if (USB_DeviceState_LCL == DEVICE_STATE_Suspended)
 2706               		.loc 5 46 0
 2707 0076 82E0      		ldi r24,lo8(2)
 2708 0078 0895      		ret
 2709               	.L252:
  48:../tmk_core/protocol/lufa/LUFA-git/LUFA/Drivers/USB/Core/AVR8/Template/Template_Endpoint_Control_R.c **** 		else if (Endpoint_IsSETUPReceived())
 2710               		.loc 5 48 0
 2711 007a 83E0      		ldi r24,lo8(3)
 2712               	.LBE418:
 2713               		.loc 5 76 0
 2714 007c 0895      		ret
 2715               		.cfi_endproc
 2716               	.LFE100:
 2718               		.section	.text.Endpoint_Write_Control_PStream_LE,"ax",@progbits
 2719               	.global	Endpoint_Write_Control_PStream_LE
 2721               	Endpoint_Write_Control_PStream_LE:
 2722               	.LFB101:
  35:../tmk_core/protocol/lufa/LUFA-git/LUFA/Drivers/USB/Core/AVR8/Template/Template_Endpoint_Control_W.c **** 	uint8_t* DataStream     = ((uint8_t*)Buffer + TEMPLATE_BUFFER_OFFSET(Length));
 2723               		.loc 4 35 0
 2724               		.cfi_startproc
 2725               	.LVL281:
 2726               	/* prologue: function */
 2727               	/* frame size = 0 */
 2728               	/* stack size = 0 */
 2729               	.L__stack_usage = 0
  39:../tmk_core/protocol/lufa/LUFA-git/LUFA/Drivers/USB/Core/AVR8/Template/Template_Endpoint_Control_W.c **** 	  Length = USB_ControlRequest.wLength;
 2730               		.loc 4 39 0
 2731 0000 2091 0000 		lds r18,USB_ControlRequest+6
 2732 0004 3091 0000 		lds r19,USB_ControlRequest+6+1
 2733 0008 2617      		cp r18,r22
 2734 000a 3707      		cpc r19,r23
 2735 000c 00F0      		brlo .L266
  41:../tmk_core/protocol/lufa/LUFA-git/LUFA/Drivers/USB/Core/AVR8/Template/Template_Endpoint_Control_W.c **** 	  Endpoint_ClearIN();
 2736               		.loc 4 41 0
 2737 000e 6115      		cp r22,__zero_reg__
 2738 0010 7105      		cpc r23,__zero_reg__
 2739 0012 01F4      		brne .L255
 2740               	.LBB419:
 2741               	.LBB420:
 456:../tmk_core/protocol/lufa/LUFA-git/LUFA/Drivers/USB/Core/AVR8/../AVR8/../AVR8/Endpoint_AVR8.h **** 				#else
 2742               		.loc 2 456 0
 2743 0014 2091 E800 		lds r18,232
 2744 0018 2E77      		andi r18,lo8(126)
 2745 001a 2093 E800 		sts 232,r18
 2746 001e 00C0      		rjmp .L255
 2747               	.L266:
 2748               	.LBE420:
 2749               	.LBE419:
 2750 0020 B901      		movw r22,r18
 2751               	.LVL282:
 2752               	.L255:
 2753 0022 FC01      		movw r30,r24
 2754 0024 20E0      		ldi r18,0
 2755               	.LVL283:
 2756               	.L259:
  44:../tmk_core/protocol/lufa/LUFA-git/LUFA/Drivers/USB/Core/AVR8/Template/Template_Endpoint_Control_W.c **** 	{
 2757               		.loc 4 44 0
 2758 0026 6115      		cp r22,__zero_reg__
 2759 0028 7105      		cpc r23,__zero_reg__
 2760 002a 01F0      		breq .L282
 2761               	.L264:
 2762               	.LBB421:
  46:../tmk_core/protocol/lufa/LUFA-git/LUFA/Drivers/USB/Core/AVR8/Template/Template_Endpoint_Control_W.c **** 
 2763               		.loc 4 46 0
 2764 002c 8091 0000 		lds r24,USB_DeviceState
 2765               	.LVL284:
  48:../tmk_core/protocol/lufa/LUFA-git/LUFA/Drivers/USB/Core/AVR8/Template/Template_Endpoint_Control_W.c **** 		  return ENDPOINT_RWCSTREAM_DeviceDisconnected;
 2766               		.loc 4 48 0
 2767 0030 8823      		tst r24
 2768 0032 01F4      		brne .+2
 2769 0034 00C0      		rjmp .L270
  50:../tmk_core/protocol/lufa/LUFA-git/LUFA/Drivers/USB/Core/AVR8/Template/Template_Endpoint_Control_W.c **** 		  return ENDPOINT_RWCSTREAM_BusSuspended;
 2770               		.loc 4 50 0
 2771 0036 8530      		cpi r24,lo8(5)
 2772 0038 01F4      		brne .+2
 2773 003a 00C0      		rjmp .L271
 2774               	.LBB422:
 2775               	.LBB423:
 431:../tmk_core/protocol/lufa/LUFA-git/LUFA/Drivers/USB/Core/AVR8/../AVR8/../AVR8/Endpoint_AVR8.h **** 			}
 2776               		.loc 2 431 0
 2777 003c 8091 E800 		lds r24,232
 2778               	.LVL285:
 2779               	.LBE423:
 2780               	.LBE422:
  52:../tmk_core/protocol/lufa/LUFA-git/LUFA/Drivers/USB/Core/AVR8/Template/Template_Endpoint_Control_W.c **** 		  return ENDPOINT_RWCSTREAM_HostAborted;
 2781               		.loc 4 52 0
 2782 0040 83FD      		sbrc r24,3
 2783 0042 00C0      		rjmp .L272
 2784               	.LBB424:
 2785               	.LBB425:
 419:../tmk_core/protocol/lufa/LUFA-git/LUFA/Drivers/USB/Core/AVR8/../AVR8/../AVR8/Endpoint_AVR8.h **** 			}
 2786               		.loc 2 419 0
 2787 0044 8091 E800 		lds r24,232
 2788               	.LBE425:
 2789               	.LBE424:
  54:../tmk_core/protocol/lufa/LUFA-git/LUFA/Drivers/USB/Core/AVR8/Template/Template_Endpoint_Control_W.c **** 		  break;
 2790               		.loc 4 54 0
 2791 0048 82FD      		sbrc r24,2
 2792 004a 00C0      		rjmp .L278
 2793               	.LBB426:
 2794               	.LBB427:
 407:../tmk_core/protocol/lufa/LUFA-git/LUFA/Drivers/USB/Core/AVR8/../AVR8/../AVR8/Endpoint_AVR8.h **** 			}
 2795               		.loc 2 407 0
 2796 004c 8091 E800 		lds r24,232
 2797               	.LBE427:
 2798               	.LBE426:
  57:../tmk_core/protocol/lufa/LUFA-git/LUFA/Drivers/USB/Core/AVR8/Template/Template_Endpoint_Control_W.c **** 		{
 2799               		.loc 4 57 0
 2800 0050 80FF      		sbrs r24,0
 2801 0052 00C0      		rjmp .L259
 2802               	.LBB428:
 2803               	.LBB429:
 2804               	.LBB430:
 225:../tmk_core/protocol/lufa/LUFA-git/LUFA/Drivers/USB/Core/AVR8/../AVR8/../AVR8/Endpoint_AVR8.h **** 				#elif defined(USB_SERIES_4_AVR)
 2805               		.loc 2 225 0
 2806 0054 8091 F200 		lds r24,242
 2807 0058 9091 F300 		lds r25,242+1
 2808               	.LVL286:
 2809               	.L260:
 2810               	.LBE430:
 2811               	.LBE429:
  61:../tmk_core/protocol/lufa/LUFA-git/LUFA/Drivers/USB/Core/AVR8/Template/Template_Endpoint_Control_W.c **** 			{
 2812               		.loc 4 61 0
 2813 005c 6115      		cp r22,__zero_reg__
 2814 005e 7105      		cpc r23,__zero_reg__
 2815 0060 01F0      		breq .L261
  61:../tmk_core/protocol/lufa/LUFA-git/LUFA/Drivers/USB/Core/AVR8/Template/Template_Endpoint_Control_W.c **** 			{
 2816               		.loc 4 61 0 is_stmt 0 discriminator 1
 2817 0062 8830      		cpi r24,8
 2818 0064 9105      		cpc r25,__zero_reg__
 2819 0066 00F4      		brsh .L261
 2820               	.LVL287:
 2821               	.LBB431:
  63:../tmk_core/protocol/lufa/LUFA-git/LUFA/Drivers/USB/Core/AVR8/Template/Template_Endpoint_Control_W.c **** 				TEMPLATE_BUFFER_MOVE(DataStream, 1);
 2822               		.loc 4 63 0 is_stmt 1
 2823               	/* #APP */
 2824               	 ;  63 "../tmk_core/protocol/lufa/LUFA-git/LUFA/Drivers/USB/Core/AVR8/Template/Template_Endpoint_Co
 2825 0068 2491      		lpm r18, Z
 2826               		
 2827               	 ;  0 "" 2
 2828               	.LVL288:
 2829               	/* #NOAPP */
 2830               	.LBE431:
 2831               	.LBB432:
 2832               	.LBB433:
 554:../tmk_core/protocol/lufa/LUFA-git/LUFA/Drivers/USB/Core/AVR8/../AVR8/../AVR8/Endpoint_AVR8.h **** 			}
 2833               		.loc 2 554 0
 2834 006a 2093 F100 		sts 241,r18
 2835               	.LBE433:
 2836               	.LBE432:
  64:../tmk_core/protocol/lufa/LUFA-git/LUFA/Drivers/USB/Core/AVR8/Template/Template_Endpoint_Control_W.c **** 				Length--;
 2837               		.loc 4 64 0
 2838 006e 3196      		adiw r30,1
 2839               	.LVL289:
  65:../tmk_core/protocol/lufa/LUFA-git/LUFA/Drivers/USB/Core/AVR8/Template/Template_Endpoint_Control_W.c **** 				BytesInEndpoint++;
 2840               		.loc 4 65 0
 2841 0070 6150      		subi r22,1
 2842 0072 7109      		sbc r23,__zero_reg__
 2843               	.LVL290:
  66:../tmk_core/protocol/lufa/LUFA-git/LUFA/Drivers/USB/Core/AVR8/Template/Template_Endpoint_Control_W.c **** 			}
 2844               		.loc 4 66 0
 2845 0074 0196      		adiw r24,1
 2846               	.LVL291:
 2847 0076 00C0      		rjmp .L260
 2848               	.LVL292:
 2849               	.L261:
  69:../tmk_core/protocol/lufa/LUFA-git/LUFA/Drivers/USB/Core/AVR8/Template/Template_Endpoint_Control_W.c **** 			Endpoint_ClearIN();
 2850               		.loc 4 69 0
 2851 0078 21E0      		ldi r18,lo8(1)
 2852 007a 0897      		sbiw r24,8
 2853 007c 01F0      		breq .L263
 2854 007e 20E0      		ldi r18,0
 2855               	.L263:
 2856               	.LVL293:
 2857               	.LBB434:
 2858               	.LBB435:
 456:../tmk_core/protocol/lufa/LUFA-git/LUFA/Drivers/USB/Core/AVR8/../AVR8/../AVR8/Endpoint_AVR8.h **** 				#else
 2859               		.loc 2 456 0
 2860 0080 8091 E800 		lds r24,232
 2861               	.LVL294:
 2862 0084 8E77      		andi r24,lo8(126)
 2863 0086 8093 E800 		sts 232,r24
 2864 008a 00C0      		rjmp .L259
 2865               	.L282:
 2866               	.LBE435:
 2867               	.LBE434:
 2868               	.LBE428:
 2869               	.LBE421:
  44:../tmk_core/protocol/lufa/LUFA-git/LUFA/Drivers/USB/Core/AVR8/Template/Template_Endpoint_Control_W.c **** 	{
 2870               		.loc 4 44 0 discriminator 1
 2871 008c 2111      		cpse r18,__zero_reg__
 2872 008e 00C0      		rjmp .L264
 2873 0090 00C0      		rjmp .L278
 2874               	.L265:
 2875               	.LBB436:
  76:../tmk_core/protocol/lufa/LUFA-git/LUFA/Drivers/USB/Core/AVR8/Template/Template_Endpoint_Control_W.c **** 
 2876               		.loc 4 76 0
 2877 0092 8091 0000 		lds r24,USB_DeviceState
 2878               	.LVL295:
  78:../tmk_core/protocol/lufa/LUFA-git/LUFA/Drivers/USB/Core/AVR8/Template/Template_Endpoint_Control_W.c **** 		  return ENDPOINT_RWCSTREAM_DeviceDisconnected;
 2879               		.loc 4 78 0
 2880 0096 8823      		tst r24
 2881 0098 01F0      		breq .L270
  80:../tmk_core/protocol/lufa/LUFA-git/LUFA/Drivers/USB/Core/AVR8/Template/Template_Endpoint_Control_W.c **** 		  return ENDPOINT_RWCSTREAM_BusSuspended;
 2882               		.loc 4 80 0
 2883 009a 8530      		cpi r24,lo8(5)
 2884 009c 01F0      		breq .L271
 2885               	.LBB437:
 2886               	.LBB438:
 431:../tmk_core/protocol/lufa/LUFA-git/LUFA/Drivers/USB/Core/AVR8/../AVR8/../AVR8/Endpoint_AVR8.h **** 			}
 2887               		.loc 2 431 0
 2888 009e 8091 E800 		lds r24,232
 2889               	.LVL296:
 2890               	.LBE438:
 2891               	.LBE437:
  82:../tmk_core/protocol/lufa/LUFA-git/LUFA/Drivers/USB/Core/AVR8/Template/Template_Endpoint_Control_W.c **** 		  return ENDPOINT_RWCSTREAM_HostAborted;
 2892               		.loc 4 82 0
 2893 00a2 83FD      		sbrc r24,3
 2894 00a4 00C0      		rjmp .L272
 2895               	.L278:
 2896               	.LBE436:
 2897               	.LBB439:
 2898               	.LBB440:
 419:../tmk_core/protocol/lufa/LUFA-git/LUFA/Drivers/USB/Core/AVR8/../AVR8/../AVR8/Endpoint_AVR8.h **** 			}
 2899               		.loc 2 419 0
 2900 00a6 8091 E800 		lds r24,232
 2901               	.LBE440:
 2902               	.LBE439:
  74:../tmk_core/protocol/lufa/LUFA-git/LUFA/Drivers/USB/Core/AVR8/Template/Template_Endpoint_Control_W.c **** 	{
 2903               		.loc 4 74 0
 2904 00aa 82FF      		sbrs r24,2
 2905 00ac 00C0      		rjmp .L265
  86:../tmk_core/protocol/lufa/LUFA-git/LUFA/Drivers/USB/Core/AVR8/Template/Template_Endpoint_Control_W.c **** }
 2906               		.loc 4 86 0
 2907 00ae 80E0      		ldi r24,0
 2908 00b0 0895      		ret
 2909               	.L270:
 2910               	.LBB441:
  49:../tmk_core/protocol/lufa/LUFA-git/LUFA/Drivers/USB/Core/AVR8/Template/Template_Endpoint_Control_W.c **** 		else if (USB_DeviceState_LCL == DEVICE_STATE_Suspended)
 2911               		.loc 4 49 0
 2912 00b2 82E0      		ldi r24,lo8(2)
 2913 00b4 0895      		ret
 2914               	.L271:
  51:../tmk_core/protocol/lufa/LUFA-git/LUFA/Drivers/USB/Core/AVR8/Template/Template_Endpoint_Control_W.c **** 		else if (Endpoint_IsSETUPReceived())
 2915               		.loc 4 51 0
 2916 00b6 83E0      		ldi r24,lo8(3)
 2917 00b8 0895      		ret
 2918               	.L272:
  53:../tmk_core/protocol/lufa/LUFA-git/LUFA/Drivers/USB/Core/AVR8/Template/Template_Endpoint_Control_W.c **** 		else if (Endpoint_IsOUTReceived())
 2919               		.loc 4 53 0
 2920 00ba 81E0      		ldi r24,lo8(1)
 2921               	.LBE441:
 2922               		.loc 4 87 0
 2923 00bc 0895      		ret
 2924               		.cfi_endproc
 2925               	.LFE101:
 2927               		.section	.text.Endpoint_Write_Control_PStream_BE,"ax",@progbits
 2928               	.global	Endpoint_Write_Control_PStream_BE
 2930               	Endpoint_Write_Control_PStream_BE:
 2931               	.LFB102:
  35:../tmk_core/protocol/lufa/LUFA-git/LUFA/Drivers/USB/Core/AVR8/Template/Template_Endpoint_Control_W.c **** 	uint8_t* DataStream     = ((uint8_t*)Buffer + TEMPLATE_BUFFER_OFFSET(Length));
 2932               		.loc 4 35 0
 2933               		.cfi_startproc
 2934               	.LVL297:
 2935               	/* prologue: function */
 2936               	/* frame size = 0 */
 2937               	/* stack size = 0 */
 2938               	.L__stack_usage = 0
  36:../tmk_core/protocol/lufa/LUFA-git/LUFA/Drivers/USB/Core/AVR8/Template/Template_Endpoint_Control_W.c **** 	bool     LastPacketFull = false;
 2939               		.loc 4 36 0
 2940 0000 FB01      		movw r30,r22
 2941 0002 3197      		sbiw r30,1
 2942 0004 8E0F      		add r24,r30
 2943 0006 9F1F      		adc r25,r31
 2944               	.LVL298:
  39:../tmk_core/protocol/lufa/LUFA-git/LUFA/Drivers/USB/Core/AVR8/Template/Template_Endpoint_Control_W.c **** 	  Length = USB_ControlRequest.wLength;
 2945               		.loc 4 39 0
 2946 0008 2091 0000 		lds r18,USB_ControlRequest+6
 2947 000c 3091 0000 		lds r19,USB_ControlRequest+6+1
 2948 0010 2617      		cp r18,r22
 2949 0012 3707      		cpc r19,r23
 2950 0014 00F0      		brlo .L295
  41:../tmk_core/protocol/lufa/LUFA-git/LUFA/Drivers/USB/Core/AVR8/Template/Template_Endpoint_Control_W.c **** 	  Endpoint_ClearIN();
 2951               		.loc 4 41 0
 2952 0016 6115      		cp r22,__zero_reg__
 2953 0018 7105      		cpc r23,__zero_reg__
 2954 001a 01F4      		brne .L284
 2955               	.LBB442:
 2956               	.LBB443:
 456:../tmk_core/protocol/lufa/LUFA-git/LUFA/Drivers/USB/Core/AVR8/../AVR8/../AVR8/Endpoint_AVR8.h **** 				#else
 2957               		.loc 2 456 0
 2958 001c 2091 E800 		lds r18,232
 2959 0020 2E77      		andi r18,lo8(126)
 2960 0022 2093 E800 		sts 232,r18
 2961 0026 00C0      		rjmp .L284
 2962               	.L295:
 2963               	.LBE443:
 2964               	.LBE442:
 2965 0028 B901      		movw r22,r18
 2966               	.LVL299:
 2967               	.L284:
 2968 002a 40E0      		ldi r20,0
 2969               	.LVL300:
 2970               	.L288:
  44:../tmk_core/protocol/lufa/LUFA-git/LUFA/Drivers/USB/Core/AVR8/Template/Template_Endpoint_Control_W.c **** 	{
 2971               		.loc 4 44 0
 2972 002c 6115      		cp r22,__zero_reg__
 2973 002e 7105      		cpc r23,__zero_reg__
 2974 0030 01F0      		breq .L311
 2975               	.L293:
 2976               	.LBB444:
  46:../tmk_core/protocol/lufa/LUFA-git/LUFA/Drivers/USB/Core/AVR8/Template/Template_Endpoint_Control_W.c **** 
 2977               		.loc 4 46 0
 2978 0032 2091 0000 		lds r18,USB_DeviceState
 2979               	.LVL301:
  48:../tmk_core/protocol/lufa/LUFA-git/LUFA/Drivers/USB/Core/AVR8/Template/Template_Endpoint_Control_W.c **** 		  return ENDPOINT_RWCSTREAM_DeviceDisconnected;
 2980               		.loc 4 48 0
 2981 0036 2223      		tst r18
 2982 0038 01F4      		brne .+2
 2983 003a 00C0      		rjmp .L299
  50:../tmk_core/protocol/lufa/LUFA-git/LUFA/Drivers/USB/Core/AVR8/Template/Template_Endpoint_Control_W.c **** 		  return ENDPOINT_RWCSTREAM_BusSuspended;
 2984               		.loc 4 50 0
 2985 003c 2530      		cpi r18,lo8(5)
 2986 003e 01F4      		brne .+2
 2987 0040 00C0      		rjmp .L300
 2988               	.LBB445:
 2989               	.LBB446:
 431:../tmk_core/protocol/lufa/LUFA-git/LUFA/Drivers/USB/Core/AVR8/../AVR8/../AVR8/Endpoint_AVR8.h **** 			}
 2990               		.loc 2 431 0
 2991 0042 2091 E800 		lds r18,232
 2992               	.LVL302:
 2993               	.LBE446:
 2994               	.LBE445:
  52:../tmk_core/protocol/lufa/LUFA-git/LUFA/Drivers/USB/Core/AVR8/Template/Template_Endpoint_Control_W.c **** 		  return ENDPOINT_RWCSTREAM_HostAborted;
 2995               		.loc 4 52 0
 2996 0046 23FD      		sbrc r18,3
 2997 0048 00C0      		rjmp .L301
 2998               	.LBB447:
 2999               	.LBB448:
 419:../tmk_core/protocol/lufa/LUFA-git/LUFA/Drivers/USB/Core/AVR8/../AVR8/../AVR8/Endpoint_AVR8.h **** 			}
 3000               		.loc 2 419 0
 3001 004a 2091 E800 		lds r18,232
 3002               	.LBE448:
 3003               	.LBE447:
  54:../tmk_core/protocol/lufa/LUFA-git/LUFA/Drivers/USB/Core/AVR8/Template/Template_Endpoint_Control_W.c **** 		  break;
 3004               		.loc 4 54 0
 3005 004e 22FD      		sbrc r18,2
 3006 0050 00C0      		rjmp .L307
 3007               	.LBB449:
 3008               	.LBB450:
 407:../tmk_core/protocol/lufa/LUFA-git/LUFA/Drivers/USB/Core/AVR8/../AVR8/../AVR8/Endpoint_AVR8.h **** 			}
 3009               		.loc 2 407 0
 3010 0052 2091 E800 		lds r18,232
 3011               	.LBE450:
 3012               	.LBE449:
  57:../tmk_core/protocol/lufa/LUFA-git/LUFA/Drivers/USB/Core/AVR8/Template/Template_Endpoint_Control_W.c **** 		{
 3013               		.loc 4 57 0
 3014 0056 20FF      		sbrs r18,0
 3015 0058 00C0      		rjmp .L288
 3016               	.LBB451:
 3017               	.LBB452:
 3018               	.LBB453:
 225:../tmk_core/protocol/lufa/LUFA-git/LUFA/Drivers/USB/Core/AVR8/../AVR8/../AVR8/Endpoint_AVR8.h **** 				#elif defined(USB_SERIES_4_AVR)
 3019               		.loc 2 225 0
 3020 005a 2091 F200 		lds r18,242
 3021 005e 3091 F300 		lds r19,242+1
 3022               	.LVL303:
 3023               	.L289:
 3024               	.LBE453:
 3025               	.LBE452:
  61:../tmk_core/protocol/lufa/LUFA-git/LUFA/Drivers/USB/Core/AVR8/Template/Template_Endpoint_Control_W.c **** 			{
 3026               		.loc 4 61 0
 3027 0062 6115      		cp r22,__zero_reg__
 3028 0064 7105      		cpc r23,__zero_reg__
 3029 0066 01F0      		breq .L290
  61:../tmk_core/protocol/lufa/LUFA-git/LUFA/Drivers/USB/Core/AVR8/Template/Template_Endpoint_Control_W.c **** 			{
 3030               		.loc 4 61 0 is_stmt 0 discriminator 1
 3031 0068 2830      		cpi r18,8
 3032 006a 3105      		cpc r19,__zero_reg__
 3033 006c 00F4      		brsh .L290
 3034               	.LVL304:
 3035               	.LBB454:
  63:../tmk_core/protocol/lufa/LUFA-git/LUFA/Drivers/USB/Core/AVR8/Template/Template_Endpoint_Control_W.c **** 				TEMPLATE_BUFFER_MOVE(DataStream, 1);
 3036               		.loc 4 63 0 is_stmt 1
 3037 006e FC01      		movw r30,r24
 3038               	/* #APP */
 3039               	 ;  63 "../tmk_core/protocol/lufa/LUFA-git/LUFA/Drivers/USB/Core/AVR8/Template/Template_Endpoint_Co
 3040 0070 4491      		lpm r20, Z
 3041               		
 3042               	 ;  0 "" 2
 3043               	.LVL305:
 3044               	/* #NOAPP */
 3045               	.LBE454:
 3046               	.LBB455:
 3047               	.LBB456:
 554:../tmk_core/protocol/lufa/LUFA-git/LUFA/Drivers/USB/Core/AVR8/../AVR8/../AVR8/Endpoint_AVR8.h **** 			}
 3048               		.loc 2 554 0
 3049 0072 4093 F100 		sts 241,r20
 3050               	.LBE456:
 3051               	.LBE455:
  64:../tmk_core/protocol/lufa/LUFA-git/LUFA/Drivers/USB/Core/AVR8/Template/Template_Endpoint_Control_W.c **** 				Length--;
 3052               		.loc 4 64 0
 3053 0076 0197      		sbiw r24,1
 3054               	.LVL306:
  65:../tmk_core/protocol/lufa/LUFA-git/LUFA/Drivers/USB/Core/AVR8/Template/Template_Endpoint_Control_W.c **** 				BytesInEndpoint++;
 3055               		.loc 4 65 0
 3056 0078 6150      		subi r22,1
 3057 007a 7109      		sbc r23,__zero_reg__
 3058               	.LVL307:
  66:../tmk_core/protocol/lufa/LUFA-git/LUFA/Drivers/USB/Core/AVR8/Template/Template_Endpoint_Control_W.c **** 			}
 3059               		.loc 4 66 0
 3060 007c 2F5F      		subi r18,-1
 3061 007e 3F4F      		sbci r19,-1
 3062               	.LVL308:
 3063 0080 00C0      		rjmp .L289
 3064               	.LVL309:
 3065               	.L290:
  69:../tmk_core/protocol/lufa/LUFA-git/LUFA/Drivers/USB/Core/AVR8/Template/Template_Endpoint_Control_W.c **** 			Endpoint_ClearIN();
 3066               		.loc 4 69 0
 3067 0082 41E0      		ldi r20,lo8(1)
 3068 0084 2830      		cpi r18,8
 3069 0086 3105      		cpc r19,__zero_reg__
 3070 0088 01F0      		breq .L292
 3071 008a 40E0      		ldi r20,0
 3072               	.L292:
 3073               	.LVL310:
 3074               	.LBB457:
 3075               	.LBB458:
 456:../tmk_core/protocol/lufa/LUFA-git/LUFA/Drivers/USB/Core/AVR8/../AVR8/../AVR8/Endpoint_AVR8.h **** 				#else
 3076               		.loc 2 456 0
 3077 008c 2091 E800 		lds r18,232
 3078               	.LVL311:
 3079 0090 2E77      		andi r18,lo8(126)
 3080 0092 2093 E800 		sts 232,r18
 3081 0096 00C0      		rjmp .L288
 3082               	.L311:
 3083               	.LBE458:
 3084               	.LBE457:
 3085               	.LBE451:
 3086               	.LBE444:
  44:../tmk_core/protocol/lufa/LUFA-git/LUFA/Drivers/USB/Core/AVR8/Template/Template_Endpoint_Control_W.c **** 	{
 3087               		.loc 4 44 0 discriminator 1
 3088 0098 4111      		cpse r20,__zero_reg__
 3089 009a 00C0      		rjmp .L293
 3090 009c 00C0      		rjmp .L307
 3091               	.LVL312:
 3092               	.L294:
 3093               	.LBB459:
  76:../tmk_core/protocol/lufa/LUFA-git/LUFA/Drivers/USB/Core/AVR8/Template/Template_Endpoint_Control_W.c **** 
 3094               		.loc 4 76 0
 3095 009e 8091 0000 		lds r24,USB_DeviceState
 3096               	.LVL313:
  78:../tmk_core/protocol/lufa/LUFA-git/LUFA/Drivers/USB/Core/AVR8/Template/Template_Endpoint_Control_W.c **** 		  return ENDPOINT_RWCSTREAM_DeviceDisconnected;
 3097               		.loc 4 78 0
 3098 00a2 8823      		tst r24
 3099 00a4 01F0      		breq .L299
  80:../tmk_core/protocol/lufa/LUFA-git/LUFA/Drivers/USB/Core/AVR8/Template/Template_Endpoint_Control_W.c **** 		  return ENDPOINT_RWCSTREAM_BusSuspended;
 3100               		.loc 4 80 0
 3101 00a6 8530      		cpi r24,lo8(5)
 3102 00a8 01F0      		breq .L300
 3103               	.LBB460:
 3104               	.LBB461:
 431:../tmk_core/protocol/lufa/LUFA-git/LUFA/Drivers/USB/Core/AVR8/../AVR8/../AVR8/Endpoint_AVR8.h **** 			}
 3105               		.loc 2 431 0
 3106 00aa 8091 E800 		lds r24,232
 3107               	.LVL314:
 3108               	.LBE461:
 3109               	.LBE460:
  82:../tmk_core/protocol/lufa/LUFA-git/LUFA/Drivers/USB/Core/AVR8/Template/Template_Endpoint_Control_W.c **** 		  return ENDPOINT_RWCSTREAM_HostAborted;
 3110               		.loc 4 82 0
 3111 00ae 83FD      		sbrc r24,3
 3112 00b0 00C0      		rjmp .L301
 3113               	.L307:
 3114               	.LBE459:
 3115               	.LBB462:
 3116               	.LBB463:
 419:../tmk_core/protocol/lufa/LUFA-git/LUFA/Drivers/USB/Core/AVR8/../AVR8/../AVR8/Endpoint_AVR8.h **** 			}
 3117               		.loc 2 419 0
 3118 00b2 8091 E800 		lds r24,232
 3119               	.LBE463:
 3120               	.LBE462:
  74:../tmk_core/protocol/lufa/LUFA-git/LUFA/Drivers/USB/Core/AVR8/Template/Template_Endpoint_Control_W.c **** 	{
 3121               		.loc 4 74 0
 3122 00b6 82FF      		sbrs r24,2
 3123 00b8 00C0      		rjmp .L294
  86:../tmk_core/protocol/lufa/LUFA-git/LUFA/Drivers/USB/Core/AVR8/Template/Template_Endpoint_Control_W.c **** }
 3124               		.loc 4 86 0
 3125 00ba 80E0      		ldi r24,0
 3126 00bc 0895      		ret
 3127               	.L299:
 3128               	.LBB464:
  49:../tmk_core/protocol/lufa/LUFA-git/LUFA/Drivers/USB/Core/AVR8/Template/Template_Endpoint_Control_W.c **** 		else if (USB_DeviceState_LCL == DEVICE_STATE_Suspended)
 3129               		.loc 4 49 0
 3130 00be 82E0      		ldi r24,lo8(2)
 3131 00c0 0895      		ret
 3132               	.L300:
  51:../tmk_core/protocol/lufa/LUFA-git/LUFA/Drivers/USB/Core/AVR8/Template/Template_Endpoint_Control_W.c **** 		else if (Endpoint_IsSETUPReceived())
 3133               		.loc 4 51 0
 3134 00c2 83E0      		ldi r24,lo8(3)
 3135 00c4 0895      		ret
 3136               	.L301:
  53:../tmk_core/protocol/lufa/LUFA-git/LUFA/Drivers/USB/Core/AVR8/Template/Template_Endpoint_Control_W.c **** 		else if (Endpoint_IsOUTReceived())
 3137               		.loc 4 53 0
 3138 00c6 81E0      		ldi r24,lo8(1)
 3139               	.LBE464:
 3140               		.loc 4 87 0
 3141 00c8 0895      		ret
 3142               		.cfi_endproc
 3143               	.LFE102:
 3145               		.section	.text.Endpoint_Write_Control_EStream_LE,"ax",@progbits
 3146               	.global	Endpoint_Write_Control_EStream_LE
 3148               	Endpoint_Write_Control_EStream_LE:
 3149               	.LFB103:
  35:../tmk_core/protocol/lufa/LUFA-git/LUFA/Drivers/USB/Core/AVR8/Template/Template_Endpoint_Control_W.c **** 	uint8_t* DataStream     = ((uint8_t*)Buffer + TEMPLATE_BUFFER_OFFSET(Length));
 3150               		.loc 4 35 0
 3151               		.cfi_startproc
 3152               	.LVL315:
 3153 0000 CF92      		push r12
 3154               	.LCFI92:
 3155               		.cfi_def_cfa_offset 3
 3156               		.cfi_offset 12, -2
 3157 0002 DF92      		push r13
 3158               	.LCFI93:
 3159               		.cfi_def_cfa_offset 4
 3160               		.cfi_offset 13, -3
 3161 0004 EF92      		push r14
 3162               	.LCFI94:
 3163               		.cfi_def_cfa_offset 5
 3164               		.cfi_offset 14, -4
 3165 0006 FF92      		push r15
 3166               	.LCFI95:
 3167               		.cfi_def_cfa_offset 6
 3168               		.cfi_offset 15, -5
 3169 0008 0F93      		push r16
 3170               	.LCFI96:
 3171               		.cfi_def_cfa_offset 7
 3172               		.cfi_offset 16, -6
 3173 000a 1F93      		push r17
 3174               	.LCFI97:
 3175               		.cfi_def_cfa_offset 8
 3176               		.cfi_offset 17, -7
 3177 000c CF93      		push r28
 3178               	.LCFI98:
 3179               		.cfi_def_cfa_offset 9
 3180               		.cfi_offset 28, -8
 3181 000e DF93      		push r29
 3182               	.LCFI99:
 3183               		.cfi_def_cfa_offset 10
 3184               		.cfi_offset 29, -9
 3185               	/* prologue: function */
 3186               	/* frame size = 0 */
 3187               	/* stack size = 8 */
 3188               	.L__stack_usage = 8
 3189 0010 EB01      		movw r28,r22
 3190               	.LVL316:
  39:../tmk_core/protocol/lufa/LUFA-git/LUFA/Drivers/USB/Core/AVR8/Template/Template_Endpoint_Control_W.c **** 	  Length = USB_ControlRequest.wLength;
 3191               		.loc 4 39 0
 3192 0012 2091 0000 		lds r18,USB_ControlRequest+6
 3193 0016 3091 0000 		lds r19,USB_ControlRequest+6+1
 3194 001a 2617      		cp r18,r22
 3195 001c 3707      		cpc r19,r23
 3196 001e 00F0      		brlo .L324
  41:../tmk_core/protocol/lufa/LUFA-git/LUFA/Drivers/USB/Core/AVR8/Template/Template_Endpoint_Control_W.c **** 	  Endpoint_ClearIN();
 3197               		.loc 4 41 0
 3198 0020 2097      		sbiw r28,0
 3199 0022 01F4      		brne .L313
 3200               	.LBB465:
 3201               	.LBB466:
 456:../tmk_core/protocol/lufa/LUFA-git/LUFA/Drivers/USB/Core/AVR8/../AVR8/../AVR8/Endpoint_AVR8.h **** 				#else
 3202               		.loc 2 456 0
 3203 0024 2091 E800 		lds r18,232
 3204 0028 2E77      		andi r18,lo8(126)
 3205 002a 2093 E800 		sts 232,r18
 3206 002e 00C0      		rjmp .L313
 3207               	.L324:
 3208               	.LBE466:
 3209               	.LBE465:
 3210 0030 E901      		movw r28,r18
 3211               	.L313:
 3212               	.LBB467:
 3213               	.LBB468:
 3214 0032 8C01      		movw r16,r24
 3215 0034 80E0      		ldi r24,0
 3216               	.LVL317:
 3217               	.L317:
 3218               	.LBE468:
 3219               	.LBE467:
  44:../tmk_core/protocol/lufa/LUFA-git/LUFA/Drivers/USB/Core/AVR8/Template/Template_Endpoint_Control_W.c **** 	{
 3220               		.loc 4 44 0
 3221 0036 2097      		sbiw r28,0
 3222 0038 01F0      		breq .L338
 3223               	.L322:
 3224               	.LBB482:
  46:../tmk_core/protocol/lufa/LUFA-git/LUFA/Drivers/USB/Core/AVR8/Template/Template_Endpoint_Control_W.c **** 
 3225               		.loc 4 46 0
 3226 003a 9091 0000 		lds r25,USB_DeviceState
 3227               	.LVL318:
  48:../tmk_core/protocol/lufa/LUFA-git/LUFA/Drivers/USB/Core/AVR8/Template/Template_Endpoint_Control_W.c **** 		  return ENDPOINT_RWCSTREAM_DeviceDisconnected;
 3228               		.loc 4 48 0
 3229 003e 9923      		tst r25
 3230 0040 01F4      		brne .+2
 3231 0042 00C0      		rjmp .L329
  50:../tmk_core/protocol/lufa/LUFA-git/LUFA/Drivers/USB/Core/AVR8/Template/Template_Endpoint_Control_W.c **** 		  return ENDPOINT_RWCSTREAM_BusSuspended;
 3232               		.loc 4 50 0
 3233 0044 9530      		cpi r25,lo8(5)
 3234 0046 01F4      		brne .+2
 3235 0048 00C0      		rjmp .L330
 3236               	.LBB475:
 3237               	.LBB476:
 431:../tmk_core/protocol/lufa/LUFA-git/LUFA/Drivers/USB/Core/AVR8/../AVR8/../AVR8/Endpoint_AVR8.h **** 			}
 3238               		.loc 2 431 0
 3239 004a 9091 E800 		lds r25,232
 3240               	.LVL319:
 3241               	.LBE476:
 3242               	.LBE475:
  52:../tmk_core/protocol/lufa/LUFA-git/LUFA/Drivers/USB/Core/AVR8/Template/Template_Endpoint_Control_W.c **** 		  return ENDPOINT_RWCSTREAM_HostAborted;
 3243               		.loc 4 52 0
 3244 004e 93FD      		sbrc r25,3
 3245 0050 00C0      		rjmp .L331
 3246               	.LBB477:
 3247               	.LBB478:
 419:../tmk_core/protocol/lufa/LUFA-git/LUFA/Drivers/USB/Core/AVR8/../AVR8/../AVR8/Endpoint_AVR8.h **** 			}
 3248               		.loc 2 419 0
 3249 0052 9091 E800 		lds r25,232
 3250               	.LBE478:
 3251               	.LBE477:
  54:../tmk_core/protocol/lufa/LUFA-git/LUFA/Drivers/USB/Core/AVR8/Template/Template_Endpoint_Control_W.c **** 		  break;
 3252               		.loc 4 54 0
 3253 0056 92FD      		sbrc r25,2
 3254 0058 00C0      		rjmp .L335
 3255               	.LBB479:
 3256               	.LBB480:
 407:../tmk_core/protocol/lufa/LUFA-git/LUFA/Drivers/USB/Core/AVR8/../AVR8/../AVR8/Endpoint_AVR8.h **** 			}
 3257               		.loc 2 407 0
 3258 005a 9091 E800 		lds r25,232
 3259               	.LBE480:
 3260               	.LBE479:
  57:../tmk_core/protocol/lufa/LUFA-git/LUFA/Drivers/USB/Core/AVR8/Template/Template_Endpoint_Control_W.c **** 		{
 3261               		.loc 4 57 0
 3262 005e 90FF      		sbrs r25,0
 3263 0060 00C0      		rjmp .L317
 3264               	.LBB481:
 3265               	.LBB469:
 3266               	.LBB470:
 225:../tmk_core/protocol/lufa/LUFA-git/LUFA/Drivers/USB/Core/AVR8/../AVR8/../AVR8/Endpoint_AVR8.h **** 				#elif defined(USB_SERIES_4_AVR)
 3267               		.loc 2 225 0
 3268 0062 C090 F200 		lds r12,242
 3269 0066 D090 F300 		lds r13,242+1
 3270               	.LBE470:
 3271               	.LBE469:
  59:../tmk_core/protocol/lufa/LUFA-git/LUFA/Drivers/USB/Core/AVR8/Template/Template_Endpoint_Control_W.c **** 
 3272               		.loc 4 59 0
 3273 006a 7601      		movw r14,r12
 3274               	.LVL320:
 3275               	.L318:
 3276 006c C701      		movw r24,r14
 3277 006e 8C19      		sub r24,r12
 3278 0070 9D09      		sbc r25,r13
 3279 0072 800F      		add r24,r16
 3280 0074 911F      		adc r25,r17
 3281               	.LVL321:
  61:../tmk_core/protocol/lufa/LUFA-git/LUFA/Drivers/USB/Core/AVR8/Template/Template_Endpoint_Control_W.c **** 			{
 3282               		.loc 4 61 0
 3283 0076 2097      		sbiw r28,0
 3284 0078 01F0      		breq .L328
  61:../tmk_core/protocol/lufa/LUFA-git/LUFA/Drivers/USB/Core/AVR8/Template/Template_Endpoint_Control_W.c **** 			{
 3285               		.loc 4 61 0 is_stmt 0 discriminator 1
 3286 007a 28E0      		ldi r18,8
 3287 007c E216      		cp r14,r18
 3288 007e F104      		cpc r15,__zero_reg__
 3289 0080 00F4      		brsh .L328
  63:../tmk_core/protocol/lufa/LUFA-git/LUFA/Drivers/USB/Core/AVR8/Template/Template_Endpoint_Control_W.c **** 				TEMPLATE_BUFFER_MOVE(DataStream, 1);
 3290               		.loc 4 63 0 is_stmt 1
 3291 0082 0E94 0000 		call eeprom_read_byte
 3292               	.LVL322:
 3293               	.LBB471:
 3294               	.LBB472:
 554:../tmk_core/protocol/lufa/LUFA-git/LUFA/Drivers/USB/Core/AVR8/../AVR8/../AVR8/Endpoint_AVR8.h **** 			}
 3295               		.loc 2 554 0
 3296 0086 8093 F100 		sts 241,r24
 3297               	.LVL323:
 3298               	.LBE472:
 3299               	.LBE471:
  65:../tmk_core/protocol/lufa/LUFA-git/LUFA/Drivers/USB/Core/AVR8/Template/Template_Endpoint_Control_W.c **** 				BytesInEndpoint++;
 3300               		.loc 4 65 0
 3301 008a 2197      		sbiw r28,1
 3302               	.LVL324:
  66:../tmk_core/protocol/lufa/LUFA-git/LUFA/Drivers/USB/Core/AVR8/Template/Template_Endpoint_Control_W.c **** 			}
 3303               		.loc 4 66 0
 3304 008c 2FEF      		ldi r18,-1
 3305 008e E21A      		sub r14,r18
 3306 0090 F20A      		sbc r15,r18
 3307               	.LVL325:
 3308 0092 00C0      		rjmp .L318
 3309               	.LVL326:
 3310               	.L328:
 3311 0094 8C01      		movw r16,r24
  69:../tmk_core/protocol/lufa/LUFA-git/LUFA/Drivers/USB/Core/AVR8/Template/Template_Endpoint_Control_W.c **** 			Endpoint_ClearIN();
 3312               		.loc 4 69 0
 3313 0096 81E0      		ldi r24,lo8(1)
 3314               	.LVL327:
 3315 0098 98E0      		ldi r25,8
 3316 009a E916      		cp r14,r25
 3317 009c F104      		cpc r15,__zero_reg__
 3318 009e 01F0      		breq .L321
 3319 00a0 80E0      		ldi r24,0
 3320               	.L321:
 3321               	.LVL328:
 3322               	.LBB473:
 3323               	.LBB474:
 456:../tmk_core/protocol/lufa/LUFA-git/LUFA/Drivers/USB/Core/AVR8/../AVR8/../AVR8/Endpoint_AVR8.h **** 				#else
 3324               		.loc 2 456 0
 3325 00a2 9091 E800 		lds r25,232
 3326 00a6 9E77      		andi r25,lo8(126)
 3327 00a8 9093 E800 		sts 232,r25
 3328 00ac 00C0      		rjmp .L317
 3329               	.LVL329:
 3330               	.L338:
 3331               	.LBE474:
 3332               	.LBE473:
 3333               	.LBE481:
 3334               	.LBE482:
  44:../tmk_core/protocol/lufa/LUFA-git/LUFA/Drivers/USB/Core/AVR8/Template/Template_Endpoint_Control_W.c **** 	{
 3335               		.loc 4 44 0 discriminator 1
 3336 00ae 8111      		cpse r24,__zero_reg__
 3337 00b0 00C0      		rjmp .L322
 3338 00b2 00C0      		rjmp .L335
 3339               	.LVL330:
 3340               	.L323:
 3341               	.LBB483:
  76:../tmk_core/protocol/lufa/LUFA-git/LUFA/Drivers/USB/Core/AVR8/Template/Template_Endpoint_Control_W.c **** 
 3342               		.loc 4 76 0
 3343 00b4 8091 0000 		lds r24,USB_DeviceState
 3344               	.LVL331:
  78:../tmk_core/protocol/lufa/LUFA-git/LUFA/Drivers/USB/Core/AVR8/Template/Template_Endpoint_Control_W.c **** 		  return ENDPOINT_RWCSTREAM_DeviceDisconnected;
 3345               		.loc 4 78 0
 3346 00b8 8823      		tst r24
 3347 00ba 01F0      		breq .L329
  80:../tmk_core/protocol/lufa/LUFA-git/LUFA/Drivers/USB/Core/AVR8/Template/Template_Endpoint_Control_W.c **** 		  return ENDPOINT_RWCSTREAM_BusSuspended;
 3348               		.loc 4 80 0
 3349 00bc 8530      		cpi r24,lo8(5)
 3350 00be 01F0      		breq .L330
 3351               	.LBB484:
 3352               	.LBB485:
 431:../tmk_core/protocol/lufa/LUFA-git/LUFA/Drivers/USB/Core/AVR8/../AVR8/../AVR8/Endpoint_AVR8.h **** 			}
 3353               		.loc 2 431 0
 3354 00c0 8091 E800 		lds r24,232
 3355               	.LVL332:
 3356               	.LBE485:
 3357               	.LBE484:
  82:../tmk_core/protocol/lufa/LUFA-git/LUFA/Drivers/USB/Core/AVR8/Template/Template_Endpoint_Control_W.c **** 		  return ENDPOINT_RWCSTREAM_HostAborted;
 3358               		.loc 4 82 0
 3359 00c4 83FD      		sbrc r24,3
 3360 00c6 00C0      		rjmp .L331
 3361               	.L335:
 3362               	.LBE483:
 3363               	.LBB486:
 3364               	.LBB487:
 419:../tmk_core/protocol/lufa/LUFA-git/LUFA/Drivers/USB/Core/AVR8/../AVR8/../AVR8/Endpoint_AVR8.h **** 			}
 3365               		.loc 2 419 0
 3366 00c8 8091 E800 		lds r24,232
 3367               	.LBE487:
 3368               	.LBE486:
  74:../tmk_core/protocol/lufa/LUFA-git/LUFA/Drivers/USB/Core/AVR8/Template/Template_Endpoint_Control_W.c **** 	{
 3369               		.loc 4 74 0
 3370 00cc 82FF      		sbrs r24,2
 3371 00ce 00C0      		rjmp .L323
  86:../tmk_core/protocol/lufa/LUFA-git/LUFA/Drivers/USB/Core/AVR8/Template/Template_Endpoint_Control_W.c **** }
 3372               		.loc 4 86 0
 3373 00d0 80E0      		ldi r24,0
 3374 00d2 00C0      		rjmp .L315
 3375               	.L329:
 3376               	.LBB488:
  49:../tmk_core/protocol/lufa/LUFA-git/LUFA/Drivers/USB/Core/AVR8/Template/Template_Endpoint_Control_W.c **** 		else if (USB_DeviceState_LCL == DEVICE_STATE_Suspended)
 3377               		.loc 4 49 0
 3378 00d4 82E0      		ldi r24,lo8(2)
 3379 00d6 00C0      		rjmp .L315
 3380               	.L330:
  51:../tmk_core/protocol/lufa/LUFA-git/LUFA/Drivers/USB/Core/AVR8/Template/Template_Endpoint_Control_W.c **** 		else if (Endpoint_IsSETUPReceived())
 3381               		.loc 4 51 0
 3382 00d8 83E0      		ldi r24,lo8(3)
 3383 00da 00C0      		rjmp .L315
 3384               	.L331:
  53:../tmk_core/protocol/lufa/LUFA-git/LUFA/Drivers/USB/Core/AVR8/Template/Template_Endpoint_Control_W.c **** 		else if (Endpoint_IsOUTReceived())
 3385               		.loc 4 53 0
 3386 00dc 81E0      		ldi r24,lo8(1)
 3387               	.L315:
 3388               	/* epilogue start */
 3389               	.LBE488:
 3390               		.loc 4 87 0
 3391 00de DF91      		pop r29
 3392 00e0 CF91      		pop r28
 3393               	.LVL333:
 3394 00e2 1F91      		pop r17
 3395 00e4 0F91      		pop r16
 3396               	.LVL334:
 3397 00e6 FF90      		pop r15
 3398 00e8 EF90      		pop r14
 3399 00ea DF90      		pop r13
 3400 00ec CF90      		pop r12
 3401 00ee 0895      		ret
 3402               		.cfi_endproc
 3403               	.LFE103:
 3405               		.section	.text.Endpoint_Write_Control_EStream_BE,"ax",@progbits
 3406               	.global	Endpoint_Write_Control_EStream_BE
 3408               	Endpoint_Write_Control_EStream_BE:
 3409               	.LFB104:
  35:../tmk_core/protocol/lufa/LUFA-git/LUFA/Drivers/USB/Core/AVR8/Template/Template_Endpoint_Control_W.c **** 	uint8_t* DataStream     = ((uint8_t*)Buffer + TEMPLATE_BUFFER_OFFSET(Length));
 3410               		.loc 4 35 0
 3411               		.cfi_startproc
 3412               	.LVL335:
 3413 0000 CF92      		push r12
 3414               	.LCFI100:
 3415               		.cfi_def_cfa_offset 3
 3416               		.cfi_offset 12, -2
 3417 0002 DF92      		push r13
 3418               	.LCFI101:
 3419               		.cfi_def_cfa_offset 4
 3420               		.cfi_offset 13, -3
 3421 0004 EF92      		push r14
 3422               	.LCFI102:
 3423               		.cfi_def_cfa_offset 5
 3424               		.cfi_offset 14, -4
 3425 0006 FF92      		push r15
 3426               	.LCFI103:
 3427               		.cfi_def_cfa_offset 6
 3428               		.cfi_offset 15, -5
 3429 0008 0F93      		push r16
 3430               	.LCFI104:
 3431               		.cfi_def_cfa_offset 7
 3432               		.cfi_offset 16, -6
 3433 000a 1F93      		push r17
 3434               	.LCFI105:
 3435               		.cfi_def_cfa_offset 8
 3436               		.cfi_offset 17, -7
 3437 000c CF93      		push r28
 3438               	.LCFI106:
 3439               		.cfi_def_cfa_offset 9
 3440               		.cfi_offset 28, -8
 3441 000e DF93      		push r29
 3442               	.LCFI107:
 3443               		.cfi_def_cfa_offset 10
 3444               		.cfi_offset 29, -9
 3445               	/* prologue: function */
 3446               	/* frame size = 0 */
 3447               	/* stack size = 8 */
 3448               	.L__stack_usage = 8
 3449 0010 EB01      		movw r28,r22
  36:../tmk_core/protocol/lufa/LUFA-git/LUFA/Drivers/USB/Core/AVR8/Template/Template_Endpoint_Control_W.c **** 	bool     LastPacketFull = false;
 3450               		.loc 4 36 0
 3451 0012 8B01      		movw r16,r22
 3452 0014 0150      		subi r16,1
 3453 0016 1109      		sbc r17,__zero_reg__
 3454 0018 080F      		add r16,r24
 3455 001a 191F      		adc r17,r25
 3456               	.LVL336:
  39:../tmk_core/protocol/lufa/LUFA-git/LUFA/Drivers/USB/Core/AVR8/Template/Template_Endpoint_Control_W.c **** 	  Length = USB_ControlRequest.wLength;
 3457               		.loc 4 39 0
 3458 001c 8091 0000 		lds r24,USB_ControlRequest+6
 3459 0020 9091 0000 		lds r25,USB_ControlRequest+6+1
 3460               	.LVL337:
 3461 0024 8617      		cp r24,r22
 3462 0026 9707      		cpc r25,r23
 3463 0028 00F0      		brlo .L351
  41:../tmk_core/protocol/lufa/LUFA-git/LUFA/Drivers/USB/Core/AVR8/Template/Template_Endpoint_Control_W.c **** 	  Endpoint_ClearIN();
 3464               		.loc 4 41 0
 3465 002a 2097      		sbiw r28,0
 3466 002c 01F4      		brne .L340
 3467               	.LBB489:
 3468               	.LBB490:
 456:../tmk_core/protocol/lufa/LUFA-git/LUFA/Drivers/USB/Core/AVR8/../AVR8/../AVR8/Endpoint_AVR8.h **** 				#else
 3469               		.loc 2 456 0
 3470 002e 8091 E800 		lds r24,232
 3471 0032 8E77      		andi r24,lo8(126)
 3472 0034 8093 E800 		sts 232,r24
 3473 0038 00C0      		rjmp .L340
 3474               	.L351:
 3475               	.LBE490:
 3476               	.LBE489:
 3477 003a EC01      		movw r28,r24
 3478               	.L340:
 3479               	.LBB491:
 3480               	.LBB492:
 3481 003c 80E0      		ldi r24,0
 3482               	.LVL338:
 3483               	.L344:
 3484               	.LBE492:
 3485               	.LBE491:
  44:../tmk_core/protocol/lufa/LUFA-git/LUFA/Drivers/USB/Core/AVR8/Template/Template_Endpoint_Control_W.c **** 	{
 3486               		.loc 4 44 0
 3487 003e 2097      		sbiw r28,0
 3488 0040 01F0      		breq .L365
 3489               	.L349:
 3490               	.LBB506:
  46:../tmk_core/protocol/lufa/LUFA-git/LUFA/Drivers/USB/Core/AVR8/Template/Template_Endpoint_Control_W.c **** 
 3491               		.loc 4 46 0
 3492 0042 9091 0000 		lds r25,USB_DeviceState
 3493               	.LVL339:
  48:../tmk_core/protocol/lufa/LUFA-git/LUFA/Drivers/USB/Core/AVR8/Template/Template_Endpoint_Control_W.c **** 		  return ENDPOINT_RWCSTREAM_DeviceDisconnected;
 3494               		.loc 4 48 0
 3495 0046 9923      		tst r25
 3496 0048 01F4      		brne .+2
 3497 004a 00C0      		rjmp .L356
  50:../tmk_core/protocol/lufa/LUFA-git/LUFA/Drivers/USB/Core/AVR8/Template/Template_Endpoint_Control_W.c **** 		  return ENDPOINT_RWCSTREAM_BusSuspended;
 3498               		.loc 4 50 0
 3499 004c 9530      		cpi r25,lo8(5)
 3500 004e 01F4      		brne .+2
 3501 0050 00C0      		rjmp .L357
 3502               	.LBB499:
 3503               	.LBB500:
 431:../tmk_core/protocol/lufa/LUFA-git/LUFA/Drivers/USB/Core/AVR8/../AVR8/../AVR8/Endpoint_AVR8.h **** 			}
 3504               		.loc 2 431 0
 3505 0052 9091 E800 		lds r25,232
 3506               	.LVL340:
 3507               	.LBE500:
 3508               	.LBE499:
  52:../tmk_core/protocol/lufa/LUFA-git/LUFA/Drivers/USB/Core/AVR8/Template/Template_Endpoint_Control_W.c **** 		  return ENDPOINT_RWCSTREAM_HostAborted;
 3509               		.loc 4 52 0
 3510 0056 93FD      		sbrc r25,3
 3511 0058 00C0      		rjmp .L358
 3512               	.LBB501:
 3513               	.LBB502:
 419:../tmk_core/protocol/lufa/LUFA-git/LUFA/Drivers/USB/Core/AVR8/../AVR8/../AVR8/Endpoint_AVR8.h **** 			}
 3514               		.loc 2 419 0
 3515 005a 9091 E800 		lds r25,232
 3516               	.LBE502:
 3517               	.LBE501:
  54:../tmk_core/protocol/lufa/LUFA-git/LUFA/Drivers/USB/Core/AVR8/Template/Template_Endpoint_Control_W.c **** 		  break;
 3518               		.loc 4 54 0
 3519 005e 92FD      		sbrc r25,2
 3520 0060 00C0      		rjmp .L362
 3521               	.LBB503:
 3522               	.LBB504:
 407:../tmk_core/protocol/lufa/LUFA-git/LUFA/Drivers/USB/Core/AVR8/../AVR8/../AVR8/Endpoint_AVR8.h **** 			}
 3523               		.loc 2 407 0
 3524 0062 9091 E800 		lds r25,232
 3525               	.LBE504:
 3526               	.LBE503:
  57:../tmk_core/protocol/lufa/LUFA-git/LUFA/Drivers/USB/Core/AVR8/Template/Template_Endpoint_Control_W.c **** 		{
 3527               		.loc 4 57 0
 3528 0066 90FF      		sbrs r25,0
 3529 0068 00C0      		rjmp .L344
 3530               	.LBB505:
 3531               	.LBB493:
 3532               	.LBB494:
 225:../tmk_core/protocol/lufa/LUFA-git/LUFA/Drivers/USB/Core/AVR8/../AVR8/../AVR8/Endpoint_AVR8.h **** 				#elif defined(USB_SERIES_4_AVR)
 3533               		.loc 2 225 0
 3534 006a C090 F200 		lds r12,242
 3535 006e D090 F300 		lds r13,242+1
 3536               	.LBE494:
 3537               	.LBE493:
  61:../tmk_core/protocol/lufa/LUFA-git/LUFA/Drivers/USB/Core/AVR8/Template/Template_Endpoint_Control_W.c **** 			{
 3538               		.loc 4 61 0
 3539 0072 7E01      		movw r14,r28
 3540               	.LVL341:
 3541               	.L345:
 3542 0074 C701      		movw r24,r14
 3543 0076 8C1B      		sub r24,r28
 3544 0078 9D0B      		sbc r25,r29
 3545 007a 800F      		add r24,r16
 3546 007c 911F      		adc r25,r17
 3547               	.LVL342:
 3548 007e E114      		cp r14,__zero_reg__
 3549 0080 F104      		cpc r15,__zero_reg__
 3550 0082 01F0      		breq .L355
  61:../tmk_core/protocol/lufa/LUFA-git/LUFA/Drivers/USB/Core/AVR8/Template/Template_Endpoint_Control_W.c **** 			{
 3551               		.loc 4 61 0 is_stmt 0 discriminator 1
 3552 0084 28E0      		ldi r18,8
 3553 0086 C216      		cp r12,r18
 3554 0088 D104      		cpc r13,__zero_reg__
 3555 008a 00F4      		brsh .L355
  63:../tmk_core/protocol/lufa/LUFA-git/LUFA/Drivers/USB/Core/AVR8/Template/Template_Endpoint_Control_W.c **** 				TEMPLATE_BUFFER_MOVE(DataStream, 1);
 3556               		.loc 4 63 0 is_stmt 1
 3557 008c 0E94 0000 		call eeprom_read_byte
 3558               	.LVL343:
 3559               	.LBB495:
 3560               	.LBB496:
 554:../tmk_core/protocol/lufa/LUFA-git/LUFA/Drivers/USB/Core/AVR8/../AVR8/../AVR8/Endpoint_AVR8.h **** 			}
 3561               		.loc 2 554 0
 3562 0090 8093 F100 		sts 241,r24
 3563               	.LVL344:
 3564               	.LBE496:
 3565               	.LBE495:
  65:../tmk_core/protocol/lufa/LUFA-git/LUFA/Drivers/USB/Core/AVR8/Template/Template_Endpoint_Control_W.c **** 				BytesInEndpoint++;
 3566               		.loc 4 65 0
 3567 0094 21E0      		ldi r18,1
 3568 0096 E21A      		sub r14,r18
 3569 0098 F108      		sbc r15,__zero_reg__
 3570               	.LVL345:
  66:../tmk_core/protocol/lufa/LUFA-git/LUFA/Drivers/USB/Core/AVR8/Template/Template_Endpoint_Control_W.c **** 			}
 3571               		.loc 4 66 0
 3572 009a 8FEF      		ldi r24,-1
 3573 009c C81A      		sub r12,r24
 3574 009e D80A      		sbc r13,r24
 3575               	.LVL346:
 3576 00a0 00C0      		rjmp .L345
 3577               	.LVL347:
 3578               	.L355:
 3579 00a2 8C01      		movw r16,r24
  69:../tmk_core/protocol/lufa/LUFA-git/LUFA/Drivers/USB/Core/AVR8/Template/Template_Endpoint_Control_W.c **** 			Endpoint_ClearIN();
 3580               		.loc 4 69 0
 3581 00a4 81E0      		ldi r24,lo8(1)
 3582               	.LVL348:
 3583 00a6 98E0      		ldi r25,8
 3584 00a8 C916      		cp r12,r25
 3585 00aa D104      		cpc r13,__zero_reg__
 3586 00ac 01F0      		breq .L348
 3587 00ae 80E0      		ldi r24,0
 3588               	.L348:
 3589               	.LVL349:
 3590               	.LBB497:
 3591               	.LBB498:
 456:../tmk_core/protocol/lufa/LUFA-git/LUFA/Drivers/USB/Core/AVR8/../AVR8/../AVR8/Endpoint_AVR8.h **** 				#else
 3592               		.loc 2 456 0
 3593 00b0 9091 E800 		lds r25,232
 3594 00b4 9E77      		andi r25,lo8(126)
 3595 00b6 9093 E800 		sts 232,r25
 3596 00ba E701      		movw r28,r14
 3597 00bc 00C0      		rjmp .L344
 3598               	.LVL350:
 3599               	.L365:
 3600               	.LBE498:
 3601               	.LBE497:
 3602               	.LBE505:
 3603               	.LBE506:
  44:../tmk_core/protocol/lufa/LUFA-git/LUFA/Drivers/USB/Core/AVR8/Template/Template_Endpoint_Control_W.c **** 	{
 3604               		.loc 4 44 0 discriminator 1
 3605 00be 8111      		cpse r24,__zero_reg__
 3606 00c0 00C0      		rjmp .L349
 3607 00c2 00C0      		rjmp .L362
 3608               	.LVL351:
 3609               	.L350:
 3610               	.LBB507:
  76:../tmk_core/protocol/lufa/LUFA-git/LUFA/Drivers/USB/Core/AVR8/Template/Template_Endpoint_Control_W.c **** 
 3611               		.loc 4 76 0
 3612 00c4 8091 0000 		lds r24,USB_DeviceState
 3613               	.LVL352:
  78:../tmk_core/protocol/lufa/LUFA-git/LUFA/Drivers/USB/Core/AVR8/Template/Template_Endpoint_Control_W.c **** 		  return ENDPOINT_RWCSTREAM_DeviceDisconnected;
 3614               		.loc 4 78 0
 3615 00c8 8823      		tst r24
 3616 00ca 01F0      		breq .L356
  80:../tmk_core/protocol/lufa/LUFA-git/LUFA/Drivers/USB/Core/AVR8/Template/Template_Endpoint_Control_W.c **** 		  return ENDPOINT_RWCSTREAM_BusSuspended;
 3617               		.loc 4 80 0
 3618 00cc 8530      		cpi r24,lo8(5)
 3619 00ce 01F0      		breq .L357
 3620               	.LBB508:
 3621               	.LBB509:
 431:../tmk_core/protocol/lufa/LUFA-git/LUFA/Drivers/USB/Core/AVR8/../AVR8/../AVR8/Endpoint_AVR8.h **** 			}
 3622               		.loc 2 431 0
 3623 00d0 8091 E800 		lds r24,232
 3624               	.LVL353:
 3625               	.LBE509:
 3626               	.LBE508:
  82:../tmk_core/protocol/lufa/LUFA-git/LUFA/Drivers/USB/Core/AVR8/Template/Template_Endpoint_Control_W.c **** 		  return ENDPOINT_RWCSTREAM_HostAborted;
 3627               		.loc 4 82 0
 3628 00d4 83FD      		sbrc r24,3
 3629 00d6 00C0      		rjmp .L358
 3630               	.L362:
 3631               	.LBE507:
 3632               	.LBB510:
 3633               	.LBB511:
 419:../tmk_core/protocol/lufa/LUFA-git/LUFA/Drivers/USB/Core/AVR8/../AVR8/../AVR8/Endpoint_AVR8.h **** 			}
 3634               		.loc 2 419 0
 3635 00d8 8091 E800 		lds r24,232
 3636               	.LBE511:
 3637               	.LBE510:
  74:../tmk_core/protocol/lufa/LUFA-git/LUFA/Drivers/USB/Core/AVR8/Template/Template_Endpoint_Control_W.c **** 	{
 3638               		.loc 4 74 0
 3639 00dc 82FF      		sbrs r24,2
 3640 00de 00C0      		rjmp .L350
  86:../tmk_core/protocol/lufa/LUFA-git/LUFA/Drivers/USB/Core/AVR8/Template/Template_Endpoint_Control_W.c **** }
 3641               		.loc 4 86 0
 3642 00e0 80E0      		ldi r24,0
 3643 00e2 00C0      		rjmp .L342
 3644               	.L356:
 3645               	.LBB512:
  49:../tmk_core/protocol/lufa/LUFA-git/LUFA/Drivers/USB/Core/AVR8/Template/Template_Endpoint_Control_W.c **** 		else if (USB_DeviceState_LCL == DEVICE_STATE_Suspended)
 3646               		.loc 4 49 0
 3647 00e4 82E0      		ldi r24,lo8(2)
 3648 00e6 00C0      		rjmp .L342
 3649               	.L357:
  51:../tmk_core/protocol/lufa/LUFA-git/LUFA/Drivers/USB/Core/AVR8/Template/Template_Endpoint_Control_W.c **** 		else if (Endpoint_IsSETUPReceived())
 3650               		.loc 4 51 0
 3651 00e8 83E0      		ldi r24,lo8(3)
 3652 00ea 00C0      		rjmp .L342
 3653               	.L358:
  53:../tmk_core/protocol/lufa/LUFA-git/LUFA/Drivers/USB/Core/AVR8/Template/Template_Endpoint_Control_W.c **** 		else if (Endpoint_IsOUTReceived())
 3654               		.loc 4 53 0
 3655 00ec 81E0      		ldi r24,lo8(1)
 3656               	.L342:
 3657               	/* epilogue start */
 3658               	.LBE512:
 3659               		.loc 4 87 0
 3660 00ee DF91      		pop r29
 3661 00f0 CF91      		pop r28
 3662               	.LVL354:
 3663 00f2 1F91      		pop r17
 3664 00f4 0F91      		pop r16
 3665               	.LVL355:
 3666 00f6 FF90      		pop r15
 3667 00f8 EF90      		pop r14
 3668 00fa DF90      		pop r13
 3669 00fc CF90      		pop r12
 3670 00fe 0895      		ret
 3671               		.cfi_endproc
 3672               	.LFE104:
 3674               		.section	.text.Endpoint_Read_Control_EStream_LE,"ax",@progbits
 3675               	.global	Endpoint_Read_Control_EStream_LE
 3677               	Endpoint_Read_Control_EStream_LE:
 3678               	.LFB105:
  35:../tmk_core/protocol/lufa/LUFA-git/LUFA/Drivers/USB/Core/AVR8/Template/Template_Endpoint_Control_R.c **** 	uint8_t* DataStream = ((uint8_t*)Buffer + TEMPLATE_BUFFER_OFFSET(Length));
 3679               		.loc 5 35 0
 3680               		.cfi_startproc
 3681               	.LVL356:
 3682 0000 0F93      		push r16
 3683               	.LCFI108:
 3684               		.cfi_def_cfa_offset 3
 3685               		.cfi_offset 16, -2
 3686 0002 1F93      		push r17
 3687               	.LCFI109:
 3688               		.cfi_def_cfa_offset 4
 3689               		.cfi_offset 17, -3
 3690 0004 CF93      		push r28
 3691               	.LCFI110:
 3692               		.cfi_def_cfa_offset 5
 3693               		.cfi_offset 28, -4
 3694 0006 DF93      		push r29
 3695               	.LCFI111:
 3696               		.cfi_def_cfa_offset 6
 3697               		.cfi_offset 29, -5
 3698               	/* prologue: function */
 3699               	/* frame size = 0 */
 3700               	/* stack size = 4 */
 3701               	.L__stack_usage = 4
 3702 0008 EB01      		movw r28,r22
 3703               	.LVL357:
  38:../tmk_core/protocol/lufa/LUFA-git/LUFA/Drivers/USB/Core/AVR8/Template/Template_Endpoint_Control_R.c **** 	  Endpoint_ClearOUT();
 3704               		.loc 5 38 0
 3705 000a 2097      		sbiw r28,0
 3706 000c 01F4      		brne .L367
 3707               	.LBB513:
 3708               	.LBB514:
 471:../tmk_core/protocol/lufa/LUFA-git/LUFA/Drivers/USB/Core/AVR8/../AVR8/../AVR8/Endpoint_AVR8.h **** 				#else
 3709               		.loc 2 471 0
 3710 000e 2091 E800 		lds r18,232
 3711 0012 2B77      		andi r18,lo8(123)
 3712 0014 2093 E800 		sts 232,r18
 3713               	.L367:
 3714               	.LBE514:
 3715               	.LBE513:
  35:../tmk_core/protocol/lufa/LUFA-git/LUFA/Drivers/USB/Core/AVR8/Template/Template_Endpoint_Control_R.c **** 	uint8_t* DataStream = ((uint8_t*)Buffer + TEMPLATE_BUFFER_OFFSET(Length));
 3716               		.loc 5 35 0
 3717 0018 8C01      		movw r16,r24
 3718               	.LVL358:
 3719               	.L371:
  41:../tmk_core/protocol/lufa/LUFA-git/LUFA/Drivers/USB/Core/AVR8/Template/Template_Endpoint_Control_R.c **** 	{
 3720               		.loc 5 41 0
 3721 001a 2097      		sbiw r28,0
 3722 001c 01F0      		breq .L376
 3723               	.LBB515:
  43:../tmk_core/protocol/lufa/LUFA-git/LUFA/Drivers/USB/Core/AVR8/Template/Template_Endpoint_Control_R.c **** 
 3724               		.loc 5 43 0
 3725 001e 8091 0000 		lds r24,USB_DeviceState
 3726               	.LVL359:
  45:../tmk_core/protocol/lufa/LUFA-git/LUFA/Drivers/USB/Core/AVR8/Template/Template_Endpoint_Control_R.c **** 		  return ENDPOINT_RWCSTREAM_DeviceDisconnected;
 3727               		.loc 5 45 0
 3728 0022 8823      		tst r24
 3729 0024 01F0      		breq .L381
  47:../tmk_core/protocol/lufa/LUFA-git/LUFA/Drivers/USB/Core/AVR8/Template/Template_Endpoint_Control_R.c **** 		  return ENDPOINT_RWCSTREAM_BusSuspended;
 3730               		.loc 5 47 0
 3731 0026 8530      		cpi r24,lo8(5)
 3732 0028 01F0      		breq .L382
 3733               	.LBB516:
 3734               	.LBB517:
 431:../tmk_core/protocol/lufa/LUFA-git/LUFA/Drivers/USB/Core/AVR8/../AVR8/../AVR8/Endpoint_AVR8.h **** 			}
 3735               		.loc 2 431 0
 3736 002a 8091 E800 		lds r24,232
 3737               	.LVL360:
 3738               	.LBE517:
 3739               	.LBE516:
  49:../tmk_core/protocol/lufa/LUFA-git/LUFA/Drivers/USB/Core/AVR8/Template/Template_Endpoint_Control_R.c **** 		  return ENDPOINT_RWCSTREAM_HostAborted;
 3740               		.loc 5 49 0
 3741 002e 83FD      		sbrc r24,3
 3742 0030 00C0      		rjmp .L380
 3743               	.LBB518:
 3744               	.LBB519:
 419:../tmk_core/protocol/lufa/LUFA-git/LUFA/Drivers/USB/Core/AVR8/../AVR8/../AVR8/Endpoint_AVR8.h **** 			}
 3745               		.loc 2 419 0
 3746 0032 8091 E800 		lds r24,232
 3747               	.LBE519:
 3748               	.LBE518:
  52:../tmk_core/protocol/lufa/LUFA-git/LUFA/Drivers/USB/Core/AVR8/Template/Template_Endpoint_Control_R.c **** 		{
 3749               		.loc 5 52 0
 3750 0036 82FF      		sbrs r24,2
 3751 0038 00C0      		rjmp .L371
 3752               	.L372:
 3753               	.LBB520:
 3754               	.LBB521:
 225:../tmk_core/protocol/lufa/LUFA-git/LUFA/Drivers/USB/Core/AVR8/../AVR8/../AVR8/Endpoint_AVR8.h **** 				#elif defined(USB_SERIES_4_AVR)
 3755               		.loc 2 225 0
 3756 003a 8091 F200 		lds r24,242
 3757 003e 9091 F300 		lds r25,242+1
 3758               	.LBE521:
 3759               	.LBE520:
  54:../tmk_core/protocol/lufa/LUFA-git/LUFA/Drivers/USB/Core/AVR8/Template/Template_Endpoint_Control_R.c **** 			{
 3760               		.loc 5 54 0
 3761 0042 892B      		or r24,r25
 3762 0044 01F0      		breq .L373
 3763               	.LBB522:
 3764               	.LBB523:
 542:../tmk_core/protocol/lufa/LUFA-git/LUFA/Drivers/USB/Core/AVR8/../AVR8/../AVR8/Endpoint_AVR8.h **** 			}
 3765               		.loc 2 542 0
 3766 0046 6091 F100 		lds r22,241
 3767               	.LBE523:
 3768               	.LBE522:
  56:../tmk_core/protocol/lufa/LUFA-git/LUFA/Drivers/USB/Core/AVR8/Template/Template_Endpoint_Control_R.c **** 				TEMPLATE_BUFFER_MOVE(DataStream, 1);
 3769               		.loc 5 56 0
 3770 004a C801      		movw r24,r16
 3771 004c 0E94 0000 		call eeprom_update_byte
 3772               	.LVL361:
  57:../tmk_core/protocol/lufa/LUFA-git/LUFA/Drivers/USB/Core/AVR8/Template/Template_Endpoint_Control_R.c **** 				Length--;
 3773               		.loc 5 57 0
 3774 0050 0F5F      		subi r16,-1
 3775 0052 1F4F      		sbci r17,-1
 3776               	.LVL362:
  58:../tmk_core/protocol/lufa/LUFA-git/LUFA/Drivers/USB/Core/AVR8/Template/Template_Endpoint_Control_R.c **** 			}
 3777               		.loc 5 58 0
 3778 0054 2197      		sbiw r28,1
 3779               	.LVL363:
  54:../tmk_core/protocol/lufa/LUFA-git/LUFA/Drivers/USB/Core/AVR8/Template/Template_Endpoint_Control_R.c **** 			{
 3780               		.loc 5 54 0
 3781 0056 01F4      		brne .L372
 3782               	.L373:
 3783               	.LBB524:
 3784               	.LBB525:
 471:../tmk_core/protocol/lufa/LUFA-git/LUFA/Drivers/USB/Core/AVR8/../AVR8/../AVR8/Endpoint_AVR8.h **** 				#else
 3785               		.loc 2 471 0
 3786 0058 8091 E800 		lds r24,232
 3787 005c 8B77      		andi r24,lo8(123)
 3788 005e 8093 E800 		sts 232,r24
 3789 0062 00C0      		rjmp .L371
 3790               	.L377:
 3791               	.LBE525:
 3792               	.LBE524:
 3793               	.LBE515:
 3794               	.LBB526:
  67:../tmk_core/protocol/lufa/LUFA-git/LUFA/Drivers/USB/Core/AVR8/Template/Template_Endpoint_Control_R.c **** 
 3795               		.loc 5 67 0
 3796 0064 8091 0000 		lds r24,USB_DeviceState
 3797               	.LVL364:
  69:../tmk_core/protocol/lufa/LUFA-git/LUFA/Drivers/USB/Core/AVR8/Template/Template_Endpoint_Control_R.c **** 		  return ENDPOINT_RWCSTREAM_DeviceDisconnected;
 3798               		.loc 5 69 0
 3799 0068 8823      		tst r24
 3800 006a 01F0      		breq .L381
  71:../tmk_core/protocol/lufa/LUFA-git/LUFA/Drivers/USB/Core/AVR8/Template/Template_Endpoint_Control_R.c **** 		  return ENDPOINT_RWCSTREAM_BusSuspended;
 3801               		.loc 5 71 0
 3802 006c 8530      		cpi r24,lo8(5)
 3803 006e 01F0      		breq .L382
 3804               	.LVL365:
 3805               	.L376:
 3806               	.LBE526:
 3807               	.LBB527:
 3808               	.LBB528:
 407:../tmk_core/protocol/lufa/LUFA-git/LUFA/Drivers/USB/Core/AVR8/../AVR8/../AVR8/Endpoint_AVR8.h **** 			}
 3809               		.loc 2 407 0
 3810 0070 8091 E800 		lds r24,232
 3811               	.LBE528:
 3812               	.LBE527:
  65:../tmk_core/protocol/lufa/LUFA-git/LUFA/Drivers/USB/Core/AVR8/Template/Template_Endpoint_Control_R.c **** 	{
 3813               		.loc 5 65 0
 3814 0074 80FF      		sbrs r24,0
 3815 0076 00C0      		rjmp .L377
  75:../tmk_core/protocol/lufa/LUFA-git/LUFA/Drivers/USB/Core/AVR8/Template/Template_Endpoint_Control_R.c **** }
 3816               		.loc 5 75 0
 3817 0078 80E0      		ldi r24,0
 3818 007a 00C0      		rjmp .L369
 3819               	.L380:
 3820               	.LBB529:
  50:../tmk_core/protocol/lufa/LUFA-git/LUFA/Drivers/USB/Core/AVR8/Template/Template_Endpoint_Control_R.c **** 
 3821               		.loc 5 50 0
 3822 007c 81E0      		ldi r24,lo8(1)
 3823 007e 00C0      		rjmp .L369
 3824               	.L381:
  46:../tmk_core/protocol/lufa/LUFA-git/LUFA/Drivers/USB/Core/AVR8/Template/Template_Endpoint_Control_R.c **** 		else if (USB_DeviceState_LCL == DEVICE_STATE_Suspended)
 3825               		.loc 5 46 0
 3826 0080 82E0      		ldi r24,lo8(2)
 3827 0082 00C0      		rjmp .L369
 3828               	.L382:
  48:../tmk_core/protocol/lufa/LUFA-git/LUFA/Drivers/USB/Core/AVR8/Template/Template_Endpoint_Control_R.c **** 		else if (Endpoint_IsSETUPReceived())
 3829               		.loc 5 48 0
 3830 0084 83E0      		ldi r24,lo8(3)
 3831               	.L369:
 3832               	/* epilogue start */
 3833               	.LBE529:
 3834               		.loc 5 76 0
 3835 0086 DF91      		pop r29
 3836 0088 CF91      		pop r28
 3837               	.LVL366:
 3838 008a 1F91      		pop r17
 3839 008c 0F91      		pop r16
 3840               	.LVL367:
 3841 008e 0895      		ret
 3842               		.cfi_endproc
 3843               	.LFE105:
 3845               		.section	.text.Endpoint_Read_Control_EStream_BE,"ax",@progbits
 3846               	.global	Endpoint_Read_Control_EStream_BE
 3848               	Endpoint_Read_Control_EStream_BE:
 3849               	.LFB106:
  35:../tmk_core/protocol/lufa/LUFA-git/LUFA/Drivers/USB/Core/AVR8/Template/Template_Endpoint_Control_R.c **** 	uint8_t* DataStream = ((uint8_t*)Buffer + TEMPLATE_BUFFER_OFFSET(Length));
 3850               		.loc 5 35 0
 3851               		.cfi_startproc
 3852               	.LVL368:
 3853 0000 0F93      		push r16
 3854               	.LCFI112:
 3855               		.cfi_def_cfa_offset 3
 3856               		.cfi_offset 16, -2
 3857 0002 1F93      		push r17
 3858               	.LCFI113:
 3859               		.cfi_def_cfa_offset 4
 3860               		.cfi_offset 17, -3
 3861 0004 CF93      		push r28
 3862               	.LCFI114:
 3863               		.cfi_def_cfa_offset 5
 3864               		.cfi_offset 28, -4
 3865 0006 DF93      		push r29
 3866               	.LCFI115:
 3867               		.cfi_def_cfa_offset 6
 3868               		.cfi_offset 29, -5
 3869               	/* prologue: function */
 3870               	/* frame size = 0 */
 3871               	/* stack size = 4 */
 3872               	.L__stack_usage = 4
 3873 0008 EB01      		movw r28,r22
  36:../tmk_core/protocol/lufa/LUFA-git/LUFA/Drivers/USB/Core/AVR8/Template/Template_Endpoint_Control_R.c **** 
 3874               		.loc 5 36 0
 3875 000a 8B01      		movw r16,r22
 3876 000c 0150      		subi r16,1
 3877 000e 1109      		sbc r17,__zero_reg__
 3878 0010 080F      		add r16,r24
 3879 0012 191F      		adc r17,r25
 3880               	.LVL369:
  38:../tmk_core/protocol/lufa/LUFA-git/LUFA/Drivers/USB/Core/AVR8/Template/Template_Endpoint_Control_R.c **** 	  Endpoint_ClearOUT();
 3881               		.loc 5 38 0
 3882 0014 2097      		sbiw r28,0
 3883 0016 01F4      		brne .L389
 3884               	.LVL370:
 3885               	.L391:
 3886               	.LBB530:
 3887               	.LBB531:
 3888               	.LBB532:
 471:../tmk_core/protocol/lufa/LUFA-git/LUFA/Drivers/USB/Core/AVR8/../AVR8/../AVR8/Endpoint_AVR8.h **** 				#else
 3889               		.loc 2 471 0
 3890 0018 8091 E800 		lds r24,232
 3891 001c 8B77      		andi r24,lo8(123)
 3892 001e 8093 E800 		sts 232,r24
 3893               	.L389:
 3894               	.LBE532:
 3895               	.LBE531:
 3896               	.LBE530:
  41:../tmk_core/protocol/lufa/LUFA-git/LUFA/Drivers/USB/Core/AVR8/Template/Template_Endpoint_Control_R.c **** 	{
 3897               		.loc 5 41 0
 3898 0022 2097      		sbiw r28,0
 3899 0024 01F0      		breq .L394
 3900               	.LBB541:
  43:../tmk_core/protocol/lufa/LUFA-git/LUFA/Drivers/USB/Core/AVR8/Template/Template_Endpoint_Control_R.c **** 
 3901               		.loc 5 43 0
 3902 0026 8091 0000 		lds r24,USB_DeviceState
 3903               	.LVL371:
  45:../tmk_core/protocol/lufa/LUFA-git/LUFA/Drivers/USB/Core/AVR8/Template/Template_Endpoint_Control_R.c **** 		  return ENDPOINT_RWCSTREAM_DeviceDisconnected;
 3904               		.loc 5 45 0
 3905 002a 8823      		tst r24
 3906 002c 01F0      		breq .L399
  47:../tmk_core/protocol/lufa/LUFA-git/LUFA/Drivers/USB/Core/AVR8/Template/Template_Endpoint_Control_R.c **** 		  return ENDPOINT_RWCSTREAM_BusSuspended;
 3907               		.loc 5 47 0
 3908 002e 8530      		cpi r24,lo8(5)
 3909 0030 01F0      		breq .L400
 3910               	.LBB533:
 3911               	.LBB534:
 431:../tmk_core/protocol/lufa/LUFA-git/LUFA/Drivers/USB/Core/AVR8/../AVR8/../AVR8/Endpoint_AVR8.h **** 			}
 3912               		.loc 2 431 0
 3913 0032 8091 E800 		lds r24,232
 3914               	.LVL372:
 3915               	.LBE534:
 3916               	.LBE533:
  49:../tmk_core/protocol/lufa/LUFA-git/LUFA/Drivers/USB/Core/AVR8/Template/Template_Endpoint_Control_R.c **** 		  return ENDPOINT_RWCSTREAM_HostAborted;
 3917               		.loc 5 49 0
 3918 0036 83FD      		sbrc r24,3
 3919 0038 00C0      		rjmp .L398
 3920               	.LBB535:
 3921               	.LBB536:
 419:../tmk_core/protocol/lufa/LUFA-git/LUFA/Drivers/USB/Core/AVR8/../AVR8/../AVR8/Endpoint_AVR8.h **** 			}
 3922               		.loc 2 419 0
 3923 003a 8091 E800 		lds r24,232
 3924               	.LBE536:
 3925               	.LBE535:
  52:../tmk_core/protocol/lufa/LUFA-git/LUFA/Drivers/USB/Core/AVR8/Template/Template_Endpoint_Control_R.c **** 		{
 3926               		.loc 5 52 0
 3927 003e 82FF      		sbrs r24,2
 3928 0040 00C0      		rjmp .L389
 3929               	.L390:
 3930               	.LBB537:
 3931               	.LBB538:
 225:../tmk_core/protocol/lufa/LUFA-git/LUFA/Drivers/USB/Core/AVR8/../AVR8/../AVR8/Endpoint_AVR8.h **** 				#elif defined(USB_SERIES_4_AVR)
 3932               		.loc 2 225 0
 3933 0042 8091 F200 		lds r24,242
 3934 0046 9091 F300 		lds r25,242+1
 3935               	.LBE538:
 3936               	.LBE537:
  54:../tmk_core/protocol/lufa/LUFA-git/LUFA/Drivers/USB/Core/AVR8/Template/Template_Endpoint_Control_R.c **** 			{
 3937               		.loc 5 54 0
 3938 004a 892B      		or r24,r25
 3939 004c 01F0      		breq .L391
 3940               	.LBB539:
 3941               	.LBB540:
 542:../tmk_core/protocol/lufa/LUFA-git/LUFA/Drivers/USB/Core/AVR8/../AVR8/../AVR8/Endpoint_AVR8.h **** 			}
 3942               		.loc 2 542 0
 3943 004e 6091 F100 		lds r22,241
 3944               	.LBE540:
 3945               	.LBE539:
  56:../tmk_core/protocol/lufa/LUFA-git/LUFA/Drivers/USB/Core/AVR8/Template/Template_Endpoint_Control_R.c **** 				TEMPLATE_BUFFER_MOVE(DataStream, 1);
 3946               		.loc 5 56 0
 3947 0052 C801      		movw r24,r16
 3948 0054 0E94 0000 		call eeprom_update_byte
 3949               	.LVL373:
  57:../tmk_core/protocol/lufa/LUFA-git/LUFA/Drivers/USB/Core/AVR8/Template/Template_Endpoint_Control_R.c **** 				Length--;
 3950               		.loc 5 57 0
 3951 0058 0150      		subi r16,1
 3952 005a 1109      		sbc r17,__zero_reg__
 3953               	.LVL374:
  58:../tmk_core/protocol/lufa/LUFA-git/LUFA/Drivers/USB/Core/AVR8/Template/Template_Endpoint_Control_R.c **** 			}
 3954               		.loc 5 58 0
 3955 005c 2197      		sbiw r28,1
 3956               	.LVL375:
  54:../tmk_core/protocol/lufa/LUFA-git/LUFA/Drivers/USB/Core/AVR8/Template/Template_Endpoint_Control_R.c **** 			{
 3957               		.loc 5 54 0
 3958 005e 01F4      		brne .L390
 3959 0060 00C0      		rjmp .L391
 3960               	.L395:
 3961               	.LBE541:
 3962               	.LBB542:
  67:../tmk_core/protocol/lufa/LUFA-git/LUFA/Drivers/USB/Core/AVR8/Template/Template_Endpoint_Control_R.c **** 
 3963               		.loc 5 67 0
 3964 0062 8091 0000 		lds r24,USB_DeviceState
 3965               	.LVL376:
  69:../tmk_core/protocol/lufa/LUFA-git/LUFA/Drivers/USB/Core/AVR8/Template/Template_Endpoint_Control_R.c **** 		  return ENDPOINT_RWCSTREAM_DeviceDisconnected;
 3966               		.loc 5 69 0
 3967 0066 8823      		tst r24
 3968 0068 01F0      		breq .L399
  71:../tmk_core/protocol/lufa/LUFA-git/LUFA/Drivers/USB/Core/AVR8/Template/Template_Endpoint_Control_R.c **** 		  return ENDPOINT_RWCSTREAM_BusSuspended;
 3969               		.loc 5 71 0
 3970 006a 8530      		cpi r24,lo8(5)
 3971 006c 01F0      		breq .L400
 3972               	.LVL377:
 3973               	.L394:
 3974               	.LBE542:
 3975               	.LBB543:
 3976               	.LBB544:
 407:../tmk_core/protocol/lufa/LUFA-git/LUFA/Drivers/USB/Core/AVR8/../AVR8/../AVR8/Endpoint_AVR8.h **** 			}
 3977               		.loc 2 407 0
 3978 006e 8091 E800 		lds r24,232
 3979               	.LBE544:
 3980               	.LBE543:
  65:../tmk_core/protocol/lufa/LUFA-git/LUFA/Drivers/USB/Core/AVR8/Template/Template_Endpoint_Control_R.c **** 	{
 3981               		.loc 5 65 0
 3982 0072 80FF      		sbrs r24,0
 3983 0074 00C0      		rjmp .L395
  75:../tmk_core/protocol/lufa/LUFA-git/LUFA/Drivers/USB/Core/AVR8/Template/Template_Endpoint_Control_R.c **** }
 3984               		.loc 5 75 0
 3985 0076 80E0      		ldi r24,0
 3986 0078 00C0      		rjmp .L387
 3987               	.L398:
 3988               	.LBB545:
  50:../tmk_core/protocol/lufa/LUFA-git/LUFA/Drivers/USB/Core/AVR8/Template/Template_Endpoint_Control_R.c **** 
 3989               		.loc 5 50 0
 3990 007a 81E0      		ldi r24,lo8(1)
 3991 007c 00C0      		rjmp .L387
 3992               	.L399:
  46:../tmk_core/protocol/lufa/LUFA-git/LUFA/Drivers/USB/Core/AVR8/Template/Template_Endpoint_Control_R.c **** 		else if (USB_DeviceState_LCL == DEVICE_STATE_Suspended)
 3993               		.loc 5 46 0
 3994 007e 82E0      		ldi r24,lo8(2)
 3995 0080 00C0      		rjmp .L387
 3996               	.L400:
  48:../tmk_core/protocol/lufa/LUFA-git/LUFA/Drivers/USB/Core/AVR8/Template/Template_Endpoint_Control_R.c **** 		else if (Endpoint_IsSETUPReceived())
 3997               		.loc 5 48 0
 3998 0082 83E0      		ldi r24,lo8(3)
 3999               	.L387:
 4000               	/* epilogue start */
 4001               	.LBE545:
 4002               		.loc 5 76 0
 4003 0084 DF91      		pop r29
 4004 0086 CF91      		pop r28
 4005               	.LVL378:
 4006 0088 1F91      		pop r17
 4007 008a 0F91      		pop r16
 4008               	.LVL379:
 4009 008c 0895      		ret
 4010               		.cfi_endproc
 4011               	.LFE106:
 4013               		.text
 4014               	.Letext0:
 4015               		.file 6 "/usr/lib/avr/include/stdint.h"
 4016               		.file 7 "../tmk_core/protocol/lufa/LUFA-git/LUFA/Drivers/USB/Core/AVR8/../AVR8/../StdRequestType.h
 4017               		.file 8 "../tmk_core/protocol/lufa/LUFA-git/LUFA/Drivers/USB/Core/AVR8/../AVR8/../Device.h"
 4018               		.file 9 "../tmk_core/protocol/lufa/LUFA-git/LUFA/Drivers/USB/Core/AVR8/../AVR8/../EndpointStream.h
 4019               		.file 10 "../tmk_core/protocol/lufa/LUFA-git/LUFA/Drivers/USB/Core/AVR8/../USBTask.h"
 4020               		.file 11 "/usr/lib/avr/include/avr/eeprom.h"
DEFINED SYMBOLS
                            *ABS*:0000000000000000 EndpointStream_AVR8.c
     /tmp/ccVCe2Fi.s:2      *ABS*:000000000000003e __SP_H__
     /tmp/ccVCe2Fi.s:3      *ABS*:000000000000003d __SP_L__
     /tmp/ccVCe2Fi.s:4      *ABS*:000000000000003f __SREG__
     /tmp/ccVCe2Fi.s:5      *ABS*:000000000000003b __RAMPZ__
     /tmp/ccVCe2Fi.s:6      *ABS*:0000000000000000 __tmp_reg__
     /tmp/ccVCe2Fi.s:7      *ABS*:0000000000000001 __zero_reg__
     /tmp/ccVCe2Fi.s:14     .text.Endpoint_Discard_Stream:0000000000000000 Endpoint_Discard_Stream
     /tmp/ccVCe2Fi.s:157    .text.Endpoint_Null_Stream:0000000000000000 Endpoint_Null_Stream
     /tmp/ccVCe2Fi.s:299    .text.Endpoint_Write_Stream_LE:0000000000000000 Endpoint_Write_Stream_LE
     /tmp/ccVCe2Fi.s:465    .text.Endpoint_Write_Stream_BE:0000000000000000 Endpoint_Write_Stream_BE
     /tmp/ccVCe2Fi.s:639    .text.Endpoint_Read_Stream_LE:0000000000000000 Endpoint_Read_Stream_LE
     /tmp/ccVCe2Fi.s:802    .text.Endpoint_Read_Stream_BE:0000000000000000 Endpoint_Read_Stream_BE
     /tmp/ccVCe2Fi.s:974    .text.Endpoint_Write_PStream_LE:0000000000000000 Endpoint_Write_PStream_LE
     /tmp/ccVCe2Fi.s:1149   .text.Endpoint_Write_PStream_BE:0000000000000000 Endpoint_Write_PStream_BE
     /tmp/ccVCe2Fi.s:1331   .text.Endpoint_Write_EStream_LE:0000000000000000 Endpoint_Write_EStream_LE
     /tmp/ccVCe2Fi.s:1498   .text.Endpoint_Write_EStream_BE:0000000000000000 Endpoint_Write_EStream_BE
     /tmp/ccVCe2Fi.s:1673   .text.Endpoint_Read_EStream_LE:0000000000000000 Endpoint_Read_EStream_LE
     /tmp/ccVCe2Fi.s:1839   .text.Endpoint_Read_EStream_BE:0000000000000000 Endpoint_Read_EStream_BE
     /tmp/ccVCe2Fi.s:2013   .text.Endpoint_Write_Control_Stream_LE:0000000000000000 Endpoint_Write_Control_Stream_LE
     /tmp/ccVCe2Fi.s:2220   .text.Endpoint_Write_Control_Stream_BE:0000000000000000 Endpoint_Write_Control_Stream_BE
     /tmp/ccVCe2Fi.s:2431   .text.Endpoint_Read_Control_Stream_LE:0000000000000000 Endpoint_Read_Control_Stream_LE
     /tmp/ccVCe2Fi.s:2575   .text.Endpoint_Read_Control_Stream_BE:0000000000000000 Endpoint_Read_Control_Stream_BE
     /tmp/ccVCe2Fi.s:2721   .text.Endpoint_Write_Control_PStream_LE:0000000000000000 Endpoint_Write_Control_PStream_LE
     /tmp/ccVCe2Fi.s:2930   .text.Endpoint_Write_Control_PStream_BE:0000000000000000 Endpoint_Write_Control_PStream_BE
     /tmp/ccVCe2Fi.s:3148   .text.Endpoint_Write_Control_EStream_LE:0000000000000000 Endpoint_Write_Control_EStream_LE
     /tmp/ccVCe2Fi.s:3408   .text.Endpoint_Write_Control_EStream_BE:0000000000000000 Endpoint_Write_Control_EStream_BE
     /tmp/ccVCe2Fi.s:3677   .text.Endpoint_Read_Control_EStream_LE:0000000000000000 Endpoint_Read_Control_EStream_LE
     /tmp/ccVCe2Fi.s:3848   .text.Endpoint_Read_Control_EStream_BE:0000000000000000 Endpoint_Read_Control_EStream_BE

UNDEFINED SYMBOLS
Endpoint_WaitUntilReady
eeprom_read_byte
eeprom_update_byte
USB_ControlRequest
USB_DeviceState
